; ModuleID = 'Main.cpp'
source_filename = "Main.cpp"
target datalayout = "e-m:o-i64:64-f80:128-n8:16:32:64-S128"
target triple = "x86_64-apple-macosx10.12.0"

%"class.std::__1::basic_ostream" = type { i32 (...)**, %"class.std::__1::basic_ios.base" }
%"class.std::__1::basic_ios.base" = type <{ %"class.std::__1::ios_base", %"class.std::__1::basic_ostream"*, i32 }>
%"class.std::__1::ios_base" = type { i32 (...)**, i32, i64, i64, i32, i32, i8*, i8*, void (i32, %"class.std::__1::ios_base"*, i32)**, i32*, i64, i64, i64*, i64, i64, i8**, i64, i64 }
%"class.std::__1::basic_istream" = type { i32 (...)**, i64, %"class.std::__1::basic_ios.base" }
%"class.std::__1::locale::id" = type <{ %"struct.std::__1::once_flag", i32, [4 x i8] }>
%"struct.std::__1::once_flag" = type { i64 }
%"class.std::__1::basic_string" = type { %"class.std::__1::__compressed_pair" }
%"class.std::__1::__compressed_pair" = type { %"class.std::__1::__libcpp_compressed_pair_imp" }
%"class.std::__1::__libcpp_compressed_pair_imp" = type { %"struct.std::__1::basic_string<char, std::__1::char_traits<char>, std::__1::allocator<char> >::__rep" }
%"struct.std::__1::basic_string<char, std::__1::char_traits<char>, std::__1::allocator<char> >::__rep" = type { %union.anon }
%union.anon = type { %"struct.std::__1::basic_string<char, std::__1::char_traits<char>, std::__1::allocator<char> >::__long" }
%"struct.std::__1::basic_string<char, std::__1::char_traits<char>, std::__1::allocator<char> >::__long" = type { i64, i64, i8* }
%"class.std::__1::allocator" = type { i8 }
%struct.__sFILE = type { i8*, i32, i32, i16, i16, %struct.__sbuf, i32, i8*, i32 (i8*)*, i32 (i8*, i8*, i32)*, i64 (i8*, i64, i32)*, i32 (i8*, i8*, i32)*, %struct.__sbuf, %struct.__sFILEX*, i32, [3 x i8], [1 x i8], %struct.__sbuf, i32, i64 }
%struct.__sFILEX = type opaque
%struct.__sbuf = type { i8*, i32 }
%"class.std::__1::__basic_string_common" = type { i8 }
%"struct.std::__1::basic_string<char, std::__1::char_traits<char>, std::__1::allocator<char> >::__raw" = type { [3 x i64] }
%"struct.std::__1::basic_string<char, std::__1::char_traits<char>, std::__1::allocator<char> >::__short" = type { %union.anon.0, [23 x i8] }
%union.anon.0 = type { i8 }
%"class.std::__1::ctype" = type <{ %"class.std::__1::locale::facet", i32*, i8, [7 x i8] }>
%"class.std::__1::locale::facet" = type { %"class.std::__1::__shared_count" }
%"class.std::__1::__shared_count" = type { i32 (...)**, i64 }
%"class.std::__1::locale" = type { %"class.std::__1::locale::__imp"* }
%"class.std::__1::locale::__imp" = type opaque
%"class.std::__1::basic_ios" = type <{ %"class.std::__1::ios_base", %"class.std::__1::basic_ostream"*, i32, [4 x i8] }>
%"struct.std::__1::__less" = type { i8 }
%"class.std::__1::allocator.3" = type { i8 }
%"class.std::__1::__libcpp_compressed_pair_imp.2" = type { i32* }
%"class.std::__1::__compressed_pair.1" = type { %"class.std::__1::__libcpp_compressed_pair_imp.2" }
%"class.std::__1::__vector_base" = type { i32*, i32*, %"class.std::__1::__compressed_pair.1" }
%"class.std::__1::vector" = type { %"class.std::__1::__vector_base" }
%"struct.std::__1::vector<int, std::__1::allocator<int> >::__RAII_IncreaseAnnotator" = type { i8 }
%"struct.std::__1::nullptr_t" = type { i8* }
%"class.std::__1::__vector_base_common" = type { i8 }
%class.Network = type { i32 (...)**, double, i32, %"class.std::__1::vector.5", %"class.std::__1::vector.5", %"class.std::__1::vector.5", %"class.std::__1::vector.13", %"class.std::__1::vector.5", %"class.std::__1::vector.21", %"class.std::__1::vector.21" }
%"class.std::__1::vector.13" = type { %"class.std::__1::__vector_base.14" }
%"class.std::__1::__vector_base.14" = type { %"class.boost::numeric::ublas::matrix"**, %"class.boost::numeric::ublas::matrix"**, %"class.std::__1::__compressed_pair.17" }
%"class.boost::numeric::ublas::matrix" = type { i64, i64, %"class.boost::numeric::ublas::unbounded_array" }
%"class.boost::numeric::ublas::unbounded_array" = type { %"class.std::__1::allocator.7", i64, double* }
%"class.std::__1::allocator.7" = type { i8 }
%"class.std::__1::__compressed_pair.17" = type { %"class.std::__1::__libcpp_compressed_pair_imp.18" }
%"class.std::__1::__libcpp_compressed_pair_imp.18" = type { %"class.boost::numeric::ublas::matrix"** }
%"class.std::__1::vector.5" = type { %"class.std::__1::__vector_base.6" }
%"class.std::__1::__vector_base.6" = type { %"class.boost::numeric::ublas::vector"**, %"class.boost::numeric::ublas::vector"**, %"class.std::__1::__compressed_pair.9" }
%"class.boost::numeric::ublas::vector" = type { %"class.boost::numeric::ublas::unbounded_array" }
%"class.std::__1::__compressed_pair.9" = type { %"class.std::__1::__libcpp_compressed_pair_imp.10" }
%"class.std::__1::__libcpp_compressed_pair_imp.10" = type { %"class.boost::numeric::ublas::vector"** }
%"class.std::__1::vector.21" = type { %"class.std::__1::__vector_base.22" }
%"class.std::__1::__vector_base.22" = type { %"class.boost::function"**, %"class.boost::function"**, %"class.std::__1::__compressed_pair.23" }
%"class.boost::function" = type opaque
%"class.std::__1::__compressed_pair.23" = type { %"class.std::__1::__libcpp_compressed_pair_imp.24" }
%"class.std::__1::__libcpp_compressed_pair_imp.24" = type { %"class.boost::function"** }
%"class.boost::numeric::ublas::vector_expression" = type { i8 }
%"class.std::__1::basic_streambuf" = type { i32 (...)**, %"class.std::__1::locale", i8*, i8*, i8*, i8*, i8*, i8* }
%"struct.std::__1::integral_constant.27" = type { i8 }
%"struct.std::__1::__has_max_size" = type { i8 }
%"class.std::__1::basic_istream<char, std::__1::char_traits<char> >::sentry" = type { i8 }
%"class.std::__1::basic_ostringstream" = type { %"class.std::__1::basic_ostream.base", %"class.std::__1::basic_stringbuf", %"class.std::__1::basic_ios.base" }
%"class.std::__1::basic_ostream.base" = type { i32 (...)** }
%"class.std::__1::basic_stringbuf" = type <{ %"class.std::__1::basic_streambuf", %"class.std::__1::basic_string", i8*, i32, [4 x i8] }>
%"class.boost::numeric::ublas::vector_container" = type { i8 }
%"class.boost::numeric::ublas::storage_array" = type { i8 }
%"class.boost::numeric::ublas::nonassignable_::nonassignable" = type { i8 }
%"class.boost::numeric::ublas::ublas_expression" = type { i8 }
%"class.boost::numeric::ublas::matrix_container" = type { i8 }
%"class.boost::numeric::ublas::matrix_expression" = type { i8 }
%"class.boost::numeric::ublas::ublas_expression.15" = type { i8 }
%"struct.std::__1::integral_constant" = type { i8 }
%"struct.std::__1::__has_destroy" = type { i8 }
%"class.std::__1::ostreambuf_iterator" = type { %"class.std::__1::basic_streambuf"* }
%"class.std::__1::basic_ostream<char, std::__1::char_traits<char> >::sentry" = type { i8, %"class.std::__1::basic_ostream"* }
%"struct.std::__1::iterator" = type { i8 }
%"struct.std::__1::__split_buffer" = type { i32*, i32*, i32*, %"class.std::__1::__compressed_pair.28" }
%"class.std::__1::__compressed_pair.28" = type { %"class.std::__1::__libcpp_compressed_pair_imp.29" }
%"class.std::__1::__libcpp_compressed_pair_imp.29" = type { i32*, %"class.std::__1::allocator.3"* }
%"struct.std::__1::__has_max_size.30" = type { i8 }
%"class.std::__1::__split_buffer_common" = type { i8 }
%"struct.boost::numeric::ublas::bad_size" = type { %"class.std::domain_error" }
%"class.std::domain_error" = type { %"class.std::logic_error" }
%"class.std::logic_error" = type { %"class.std::exception", %"class.std::__1::__libcpp_refstring" }
%"class.std::exception" = type { i32 (...)** }
%"class.std::__1::__libcpp_refstring" = type { i8* }
%"struct.boost::numeric::ublas::bad_index" = type { %"class.std::out_of_range" }
%"class.std::out_of_range" = type { %"class.std::logic_error" }
%"class.std::__1::fpos" = type { %union.__mbstate_t, i64 }
%union.__mbstate_t = type { i64, [120 x i8] }
%"struct.std::__1::__less.31" = type { i8 }
%"struct.std::__1::random_access_iterator_tag" = type { i8 }

@.str = private unnamed_addr constant [6 x i8] c" 2>&1\00", align 1
@.str.1 = private unnamed_addr constant [2 x i8] c"r\00", align 1
@_ZNSt3__14coutE = external global %"class.std::__1::basic_ostream", align 8
@.str.2 = private unnamed_addr constant [1 x i8] zeroinitializer, align 1
@.str.3 = private unnamed_addr constant [5 x i8] c"here\00", align 1
@.str.4 = private unnamed_addr constant [22 x i8] c"Activation Completed!\00", align 1
@.str.5 = private unnamed_addr constant [33 x i8] c"Please Contact with S.W. Company\00", align 1
@.str.6 = private unnamed_addr constant [11 x i8] c"Exiting...\00", align 1
@.str.7 = private unnamed_addr constant [42 x i8] c"Welcome, Please Enter Your License Key : \00", align 1
@_ZNSt3__13cinE = external global %"class.std::__1::basic_istream", align 8
@.str.8 = private unnamed_addr constant [56 x i8] c"Please Enter Your Registration Date (Year Month Day) : \00", align 1
@.str.9 = private unnamed_addr constant [84 x i8] c"ioreg -rd1 -w0 -c AppleAHCIDiskDriver | grep Serial | sed -n 2p | grep -Eo '[0-9]+'\00", align 1
@.str.10 = private unnamed_addr constant [18 x i8] c"Execution Started\00", align 1
@_ZNSt3__15ctypeIcE2idE = external global %"class.std::__1::locale::id", align 8
@_ZNSt3__14cerrE = external global %"class.std::__1::basic_ostream", align 8
@.str.11 = private unnamed_addr constant [22 x i8] c"Check failed in file \00", align 1
@.str.12 = private unnamed_addr constant [54 x i8] c"/usr/local/include/boost/numeric/ublas/functional.hpp\00", align 1
@.str.13 = private unnamed_addr constant [10 x i8] c" at line \00", align 1
@.str.14 = private unnamed_addr constant [2 x i8] c":\00", align 1
@.str.15 = private unnamed_addr constant [75 x i8] c"size_j == 0 || size_i <= (std::numeric_limits<size_type>::max) () / size_j\00", align 1
@.str.16 = private unnamed_addr constant [9 x i8] c"bad size\00", align 1
@_ZTVN5boost7numeric5ublas8bad_sizeE = linkonce_odr unnamed_addr constant { [5 x i8*] } { [5 x i8*] [i8* null, i8* bitcast ({ i8*, i8*, i8* }* @_ZTIN5boost7numeric5ublas8bad_sizeE to i8*), i8* bitcast (void (%"struct.boost::numeric::ublas::bad_size"*)* @_ZN5boost7numeric5ublas8bad_sizeD1Ev to i8*), i8* bitcast (void (%"struct.boost::numeric::ublas::bad_size"*)* @_ZN5boost7numeric5ublas8bad_sizeD0Ev to i8*), i8* bitcast (i8* (%"class.std::logic_error"*)* @_ZNKSt11logic_error4whatEv to i8*)] }, align 8
@_ZTVN10__cxxabiv120__si_class_type_infoE = external global i8*
@_ZTSN5boost7numeric5ublas8bad_sizeE = linkonce_odr constant [32 x i8] c"N5boost7numeric5ublas8bad_sizeE\00"
@_ZTISt12domain_error = external constant i8*
@_ZTIN5boost7numeric5ublas8bad_sizeE = linkonce_odr constant { i8*, i8*, i8* } { i8* bitcast (i8** getelementptr inbounds (i8*, i8** @_ZTVN10__cxxabiv120__si_class_type_infoE, i64 2) to i8*), i8* getelementptr inbounds ([32 x i8], [32 x i8]* @_ZTSN5boost7numeric5ublas8bad_sizeE, i32 0, i32 0), i8* bitcast (i8** @_ZTISt12domain_error to i8*) }
@_ZTVSt12domain_error = external unnamed_addr constant { [5 x i8*] }
@.str.17 = private unnamed_addr constant [51 x i8] c"/usr/local/include/boost/numeric/ublas/storage.hpp\00", align 1
@.str.18 = private unnamed_addr constant [10 x i8] c"i < size_\00", align 1
@.str.19 = private unnamed_addr constant [10 x i8] c"bad index\00", align 1
@_ZTVN5boost7numeric5ublas9bad_indexE = linkonce_odr unnamed_addr constant { [5 x i8*] } { [5 x i8*] [i8* null, i8* bitcast ({ i8*, i8*, i8* }* @_ZTIN5boost7numeric5ublas9bad_indexE to i8*), i8* bitcast (void (%"struct.boost::numeric::ublas::bad_index"*)* @_ZN5boost7numeric5ublas9bad_indexD1Ev to i8*), i8* bitcast (void (%"struct.boost::numeric::ublas::bad_index"*)* @_ZN5boost7numeric5ublas9bad_indexD0Ev to i8*), i8* bitcast (i8* (%"class.std::logic_error"*)* @_ZNKSt11logic_error4whatEv to i8*)] }, align 8
@_ZTSN5boost7numeric5ublas9bad_indexE = linkonce_odr constant [33 x i8] c"N5boost7numeric5ublas9bad_indexE\00"
@_ZTISt12out_of_range = external constant i8*
@_ZTIN5boost7numeric5ublas9bad_indexE = linkonce_odr constant { i8*, i8*, i8* } { i8* bitcast (i8** getelementptr inbounds (i8*, i8** @_ZTVN10__cxxabiv120__si_class_type_infoE, i64 2) to i8*), i8* getelementptr inbounds ([33 x i8], [33 x i8]* @_ZTSN5boost7numeric5ublas9bad_indexE, i32 0, i32 0), i8* bitcast (i8** @_ZTISt12out_of_range to i8*) }
@_ZTVSt12out_of_range = external unnamed_addr constant { [5 x i8*] }
@.str.20 = private unnamed_addr constant [11 x i8] c"i < size_i\00", align 1
@.str.21 = private unnamed_addr constant [11 x i8] c"j < size_j\00", align 1
@.str.22 = private unnamed_addr constant [61 x i8] c"i <= ((std::numeric_limits<size_type>::max) () - j) / size_j\00", align 1
@.str.23 = private unnamed_addr constant [3 x i8] c"](\00", align 1
@_ZTVNSt3__119basic_ostringstreamIcNS_11char_traitsIcEENS_9allocatorIcEEEE = linkonce_odr unnamed_addr constant { [5 x i8*], [5 x i8*] } { [5 x i8*] [i8* inttoptr (i64 112 to i8*), i8* null, i8* bitcast ({ i8*, i8*, i8* }* @_ZTINSt3__119basic_ostringstreamIcNS_11char_traitsIcEENS_9allocatorIcEEEE to i8*), i8* bitcast (void (%"class.std::__1::basic_ostringstream"*)* @_ZNSt3__119basic_ostringstreamIcNS_11char_traitsIcEENS_9allocatorIcEEED1Ev to i8*), i8* bitcast (void (%"class.std::__1::basic_ostringstream"*)* @_ZNSt3__119basic_ostringstreamIcNS_11char_traitsIcEENS_9allocatorIcEEED0Ev to i8*)], [5 x i8*] [i8* inttoptr (i64 -112 to i8*), i8* inttoptr (i64 -112 to i8*), i8* bitcast ({ i8*, i8*, i8* }* @_ZTINSt3__119basic_ostringstreamIcNS_11char_traitsIcEENS_9allocatorIcEEEE to i8*), i8* bitcast (void (%"class.std::__1::basic_ostringstream"*)* @_ZTv0_n24_NSt3__119basic_ostringstreamIcNS_11char_traitsIcEENS_9allocatorIcEEED1Ev to i8*), i8* bitcast (void (%"class.std::__1::basic_ostringstream"*)* @_ZTv0_n24_NSt3__119basic_ostringstreamIcNS_11char_traitsIcEENS_9allocatorIcEEED0Ev to i8*)] }, align 8
@_ZTTNSt3__119basic_ostringstreamIcNS_11char_traitsIcEENS_9allocatorIcEEEE = linkonce_odr unnamed_addr constant [4 x i8*] [i8* bitcast (i8** getelementptr inbounds ({ [5 x i8*], [5 x i8*] }, { [5 x i8*], [5 x i8*] }* @_ZTVNSt3__119basic_ostringstreamIcNS_11char_traitsIcEENS_9allocatorIcEEEE, i32 0, inrange i32 0, i32 3) to i8*), i8* bitcast (i8** getelementptr inbounds ({ [5 x i8*], [5 x i8*] }, { [5 x i8*], [5 x i8*] }* @_ZTCNSt3__119basic_ostringstreamIcNS_11char_traitsIcEENS_9allocatorIcEEEE0_NS_13basic_ostreamIcS2_EE, i32 0, inrange i32 0, i32 3) to i8*), i8* bitcast (i8** getelementptr inbounds ({ [5 x i8*], [5 x i8*] }, { [5 x i8*], [5 x i8*] }* @_ZTCNSt3__119basic_ostringstreamIcNS_11char_traitsIcEENS_9allocatorIcEEEE0_NS_13basic_ostreamIcS2_EE, i32 0, inrange i32 1, i32 3) to i8*), i8* bitcast (i8** getelementptr inbounds ({ [5 x i8*], [5 x i8*] }, { [5 x i8*], [5 x i8*] }* @_ZTVNSt3__119basic_ostringstreamIcNS_11char_traitsIcEENS_9allocatorIcEEEE, i32 0, inrange i32 1, i32 3) to i8*)]
@_ZTCNSt3__119basic_ostringstreamIcNS_11char_traitsIcEENS_9allocatorIcEEEE0_NS_13basic_ostreamIcS2_EE = linkonce_odr unnamed_addr constant { [5 x i8*], [5 x i8*] } { [5 x i8*] [i8* inttoptr (i64 112 to i8*), i8* null, i8* bitcast (i8** @_ZTINSt3__113basic_ostreamIcNS_11char_traitsIcEEEE to i8*), i8* bitcast (void (%"class.std::__1::basic_ostream"*)* @_ZNSt3__113basic_ostreamIcNS_11char_traitsIcEEED1Ev to i8*), i8* bitcast (void (%"class.std::__1::basic_ostream"*)* @_ZNSt3__113basic_ostreamIcNS_11char_traitsIcEEED0Ev to i8*)], [5 x i8*] [i8* inttoptr (i64 -112 to i8*), i8* inttoptr (i64 -112 to i8*), i8* bitcast (i8** @_ZTINSt3__113basic_ostreamIcNS_11char_traitsIcEEEE to i8*), i8* bitcast (void (%"class.std::__1::basic_ostream"*)* @_ZTv0_n24_NSt3__113basic_ostreamIcNS_11char_traitsIcEEED1Ev to i8*), i8* bitcast (void (%"class.std::__1::basic_ostream"*)* @_ZTv0_n24_NSt3__113basic_ostreamIcNS_11char_traitsIcEEED0Ev to i8*)] }
@_ZTINSt3__113basic_ostreamIcNS_11char_traitsIcEEEE = external constant i8*
@_ZTSNSt3__119basic_ostringstreamIcNS_11char_traitsIcEENS_9allocatorIcEEEE = linkonce_odr constant [70 x i8] c"NSt3__119basic_ostringstreamIcNS_11char_traitsIcEENS_9allocatorIcEEEE\00"
@_ZTINSt3__119basic_ostringstreamIcNS_11char_traitsIcEENS_9allocatorIcEEEE = linkonce_odr constant { i8*, i8*, i8* } { i8* bitcast (i8** getelementptr inbounds (i8*, i8** @_ZTVN10__cxxabiv120__si_class_type_infoE, i64 2) to i8*), i8* getelementptr inbounds ([70 x i8], [70 x i8]* @_ZTSNSt3__119basic_ostringstreamIcNS_11char_traitsIcEENS_9allocatorIcEEEE, i32 0, i32 0), i8* bitcast (i8** @_ZTINSt3__113basic_ostreamIcNS_11char_traitsIcEEEE to i8*) }
@_ZTVNSt3__19basic_iosIcNS_11char_traitsIcEEEE = external unnamed_addr constant { [4 x i8*] }
@_ZTVNSt3__18ios_baseE = external unnamed_addr constant { [4 x i8*] }
@_ZTVNSt3__115basic_stringbufIcNS_11char_traitsIcEENS_9allocatorIcEEEE = linkonce_odr unnamed_addr constant { [16 x i8*] } { [16 x i8*] [i8* null, i8* bitcast ({ i8*, i8*, i8* }* @_ZTINSt3__115basic_stringbufIcNS_11char_traitsIcEENS_9allocatorIcEEEE to i8*), i8* bitcast (void (%"class.std::__1::basic_stringbuf"*)* @_ZNSt3__115basic_stringbufIcNS_11char_traitsIcEENS_9allocatorIcEEED1Ev to i8*), i8* bitcast (void (%"class.std::__1::basic_stringbuf"*)* @_ZNSt3__115basic_stringbufIcNS_11char_traitsIcEENS_9allocatorIcEEED0Ev to i8*), i8* bitcast (void (%"class.std::__1::basic_streambuf"*, %"class.std::__1::locale"*)* @_ZNSt3__115basic_streambufIcNS_11char_traitsIcEEE5imbueERKNS_6localeE to i8*), i8* bitcast (%"class.std::__1::basic_streambuf"* (%"class.std::__1::basic_streambuf"*, i8*, i64)* @_ZNSt3__115basic_streambufIcNS_11char_traitsIcEEE6setbufEPcl to i8*), i8* bitcast (void (%"class.std::__1::fpos"*, %"class.std::__1::basic_stringbuf"*, i64, i32, i32)* @_ZNSt3__115basic_stringbufIcNS_11char_traitsIcEENS_9allocatorIcEEE7seekoffExNS_8ios_base7seekdirEj to i8*), i8* bitcast (void (%"class.std::__1::fpos"*, %"class.std::__1::basic_stringbuf"*, %"class.std::__1::fpos"*, i32)* @_ZNSt3__115basic_stringbufIcNS_11char_traitsIcEENS_9allocatorIcEEE7seekposENS_4fposI11__mbstate_tEEj to i8*), i8* bitcast (i32 (%"class.std::__1::basic_streambuf"*)* @_ZNSt3__115basic_streambufIcNS_11char_traitsIcEEE4syncEv to i8*), i8* bitcast (i64 (%"class.std::__1::basic_streambuf"*)* @_ZNSt3__115basic_streambufIcNS_11char_traitsIcEEE9showmanycEv to i8*), i8* bitcast (i64 (%"class.std::__1::basic_streambuf"*, i8*, i64)* @_ZNSt3__115basic_streambufIcNS_11char_traitsIcEEE6xsgetnEPcl to i8*), i8* bitcast (i32 (%"class.std::__1::basic_stringbuf"*)* @_ZNSt3__115basic_stringbufIcNS_11char_traitsIcEENS_9allocatorIcEEE9underflowEv to i8*), i8* bitcast (i32 (%"class.std::__1::basic_streambuf"*)* @_ZNSt3__115basic_streambufIcNS_11char_traitsIcEEE5uflowEv to i8*), i8* bitcast (i32 (%"class.std::__1::basic_stringbuf"*, i32)* @_ZNSt3__115basic_stringbufIcNS_11char_traitsIcEENS_9allocatorIcEEE9pbackfailEi to i8*), i8* bitcast (i64 (%"class.std::__1::basic_streambuf"*, i8*, i64)* @_ZNSt3__115basic_streambufIcNS_11char_traitsIcEEE6xsputnEPKcl to i8*), i8* bitcast (i32 (%"class.std::__1::basic_stringbuf"*, i32)* @_ZNSt3__115basic_stringbufIcNS_11char_traitsIcEENS_9allocatorIcEEE8overflowEi to i8*)] }, align 8
@_ZTSNSt3__115basic_stringbufIcNS_11char_traitsIcEENS_9allocatorIcEEEE = linkonce_odr constant [66 x i8] c"NSt3__115basic_stringbufIcNS_11char_traitsIcEENS_9allocatorIcEEEE\00"
@_ZTINSt3__115basic_streambufIcNS_11char_traitsIcEEEE = external constant i8*
@_ZTINSt3__115basic_stringbufIcNS_11char_traitsIcEENS_9allocatorIcEEEE = linkonce_odr constant { i8*, i8*, i8* } { i8* bitcast (i8** getelementptr inbounds (i8*, i8** @_ZTVN10__cxxabiv120__si_class_type_infoE, i64 2) to i8*), i8* getelementptr inbounds ([66 x i8], [66 x i8]* @_ZTSNSt3__115basic_stringbufIcNS_11char_traitsIcEENS_9allocatorIcEEEE, i32 0, i32 0), i8* bitcast (i8** @_ZTINSt3__115basic_streambufIcNS_11char_traitsIcEEEE to i8*) }

; Function Attrs: noinline ssp uwtable
define void @_Z12returnDiskIDNSt3__112basic_stringIcNS_11char_traitsIcEENS_9allocatorIcEEEE(%"class.std::__1::basic_string"* noalias sret, %"class.std::__1::basic_string"*) #0 personality i8* bitcast (i32 (...)* @__gxx_personality_v0 to i8*) {
  %3 = alloca i8*, align 8
  %4 = alloca %"class.std::__1::__libcpp_compressed_pair_imp"*, align 8
  %5 = alloca %"class.std::__1::__compressed_pair"*, align 8
  %6 = alloca %"class.std::__1::basic_string"*, align 8
  %7 = alloca i8*, align 8
  %8 = alloca i8*, align 8
  %9 = alloca %"class.std::__1::__libcpp_compressed_pair_imp"*, align 8
  %10 = alloca %"class.std::__1::__compressed_pair"*, align 8
  %11 = alloca %"class.std::__1::basic_string"*, align 8
  %12 = alloca %"class.std::__1::__libcpp_compressed_pair_imp"*, align 8
  %13 = alloca %"class.std::__1::__compressed_pair"*, align 8
  %14 = alloca %"class.std::__1::basic_string"*, align 8
  %15 = alloca %"class.std::__1::basic_string"*, align 8
  %16 = alloca %"class.std::__1::basic_string"*, align 8
  %17 = alloca %"class.std::__1::basic_string"*, align 8
  %18 = alloca %"class.std::__1::__libcpp_compressed_pair_imp"*, align 8
  %19 = alloca %"class.std::__1::__compressed_pair"*, align 8
  %20 = alloca %"class.std::__1::basic_string"*, align 8
  %21 = alloca [3 x i64]*, align 8
  %22 = alloca i32, align 4
  %23 = alloca %"class.std::__1::allocator"*, align 8
  %24 = alloca %"class.std::__1::__libcpp_compressed_pair_imp"*, align 8
  %25 = alloca %"class.std::__1::__compressed_pair"*, align 8
  %26 = alloca %"class.std::__1::__compressed_pair"*, align 8
  %27 = alloca %"class.std::__1::basic_string"*, align 8
  %28 = alloca %"class.std::__1::basic_string"*, align 8
  %29 = alloca i1, align 1
  %30 = alloca %struct.__sFILE*, align 8
  %31 = alloca i32, align 4
  %32 = alloca [256 x i8], align 16
  %33 = alloca i8*
  %34 = alloca i32
  store i1 false, i1* %29, align 1
  store %"class.std::__1::basic_string"* %0, %"class.std::__1::basic_string"** %28, align 8
  %35 = load %"class.std::__1::basic_string"*, %"class.std::__1::basic_string"** %28, align 8
  store %"class.std::__1::basic_string"* %35, %"class.std::__1::basic_string"** %27, align 8
  %36 = load %"class.std::__1::basic_string"*, %"class.std::__1::basic_string"** %27, align 8
  %37 = bitcast %"class.std::__1::basic_string"* %36 to %"class.std::__1::__basic_string_common"*
  %38 = getelementptr inbounds %"class.std::__1::basic_string", %"class.std::__1::basic_string"* %36, i32 0, i32 0
  store %"class.std::__1::__compressed_pair"* %38, %"class.std::__1::__compressed_pair"** %26, align 8
  %39 = load %"class.std::__1::__compressed_pair"*, %"class.std::__1::__compressed_pair"** %26, align 8
  store %"class.std::__1::__compressed_pair"* %39, %"class.std::__1::__compressed_pair"** %25, align 8
  %40 = load %"class.std::__1::__compressed_pair"*, %"class.std::__1::__compressed_pair"** %25, align 8
  %41 = bitcast %"class.std::__1::__compressed_pair"* %40 to %"class.std::__1::__libcpp_compressed_pair_imp"*
  store %"class.std::__1::__libcpp_compressed_pair_imp"* %41, %"class.std::__1::__libcpp_compressed_pair_imp"** %24, align 8
  %42 = load %"class.std::__1::__libcpp_compressed_pair_imp"*, %"class.std::__1::__libcpp_compressed_pair_imp"** %24, align 8
  %43 = bitcast %"class.std::__1::__libcpp_compressed_pair_imp"* %42 to %"class.std::__1::allocator"*
  store %"class.std::__1::allocator"* %43, %"class.std::__1::allocator"** %23, align 8
  %44 = load %"class.std::__1::allocator"*, %"class.std::__1::allocator"** %23, align 8
  %45 = getelementptr inbounds %"class.std::__1::__libcpp_compressed_pair_imp", %"class.std::__1::__libcpp_compressed_pair_imp"* %42, i32 0, i32 0
  %46 = bitcast %"struct.std::__1::basic_string<char, std::__1::char_traits<char>, std::__1::allocator<char> >::__rep"* %45 to i8*
  call void @llvm.memset.p0i8.i64(i8* %46, i8 0, i64 24, i32 8, i1 false) #12
  store %"class.std::__1::basic_string"* %36, %"class.std::__1::basic_string"** %20, align 8
  %47 = load %"class.std::__1::basic_string"*, %"class.std::__1::basic_string"** %20, align 8
  %48 = getelementptr inbounds %"class.std::__1::basic_string", %"class.std::__1::basic_string"* %47, i32 0, i32 0
  store %"class.std::__1::__compressed_pair"* %48, %"class.std::__1::__compressed_pair"** %19, align 8
  %49 = load %"class.std::__1::__compressed_pair"*, %"class.std::__1::__compressed_pair"** %19, align 8
  %50 = bitcast %"class.std::__1::__compressed_pair"* %49 to %"class.std::__1::__libcpp_compressed_pair_imp"*
  store %"class.std::__1::__libcpp_compressed_pair_imp"* %50, %"class.std::__1::__libcpp_compressed_pair_imp"** %18, align 8
  %51 = load %"class.std::__1::__libcpp_compressed_pair_imp"*, %"class.std::__1::__libcpp_compressed_pair_imp"** %18, align 8
  %52 = getelementptr inbounds %"class.std::__1::__libcpp_compressed_pair_imp", %"class.std::__1::__libcpp_compressed_pair_imp"* %51, i32 0, i32 0
  %53 = getelementptr inbounds %"struct.std::__1::basic_string<char, std::__1::char_traits<char>, std::__1::allocator<char> >::__rep", %"struct.std::__1::basic_string<char, std::__1::char_traits<char>, std::__1::allocator<char> >::__rep"* %52, i32 0, i32 0
  %54 = bitcast %union.anon* %53 to %"struct.std::__1::basic_string<char, std::__1::char_traits<char>, std::__1::allocator<char> >::__raw"*
  %55 = getelementptr inbounds %"struct.std::__1::basic_string<char, std::__1::char_traits<char>, std::__1::allocator<char> >::__raw", %"struct.std::__1::basic_string<char, std::__1::char_traits<char>, std::__1::allocator<char> >::__raw"* %54, i32 0, i32 0
  store [3 x i64]* %55, [3 x i64]** %21, align 8
  store i32 0, i32* %22, align 4
  br label %56

; <label>:56:                                     ; preds = %59, %2
  %57 = load i32, i32* %22, align 4
  %58 = icmp ult i32 %57, 3
  br i1 %58, label %59, label %66

; <label>:59:                                     ; preds = %56
  %60 = load [3 x i64]*, [3 x i64]** %21, align 8
  %61 = load i32, i32* %22, align 4
  %62 = zext i32 %61 to i64
  %63 = getelementptr inbounds [3 x i64], [3 x i64]* %60, i64 0, i64 %62
  store i64 0, i64* %63, align 8
  %64 = load i32, i32* %22, align 4
  %65 = add i32 %64, 1
  store i32 %65, i32* %22, align 4
  br label %56

; <label>:66:                                     ; preds = %56
  store i32 256, i32* %31, align 4
  %67 = invoke dereferenceable(24) %"class.std::__1::basic_string"* @_ZNSt3__112basic_stringIcNS_11char_traitsIcEENS_9allocatorIcEEE6appendEPKc(%"class.std::__1::basic_string"* %1, i8* getelementptr inbounds ([6 x i8], [6 x i8]* @.str, i32 0, i32 0))
          to label %68 unwind label %134

; <label>:68:                                     ; preds = %66
  store %"class.std::__1::basic_string"* %1, %"class.std::__1::basic_string"** %17, align 8
  %69 = load %"class.std::__1::basic_string"*, %"class.std::__1::basic_string"** %17, align 8
  store %"class.std::__1::basic_string"* %69, %"class.std::__1::basic_string"** %16, align 8
  %70 = load %"class.std::__1::basic_string"*, %"class.std::__1::basic_string"** %16, align 8
  store %"class.std::__1::basic_string"* %70, %"class.std::__1::basic_string"** %15, align 8
  %71 = load %"class.std::__1::basic_string"*, %"class.std::__1::basic_string"** %15, align 8
  store %"class.std::__1::basic_string"* %71, %"class.std::__1::basic_string"** %14, align 8
  %72 = load %"class.std::__1::basic_string"*, %"class.std::__1::basic_string"** %14, align 8
  %73 = getelementptr inbounds %"class.std::__1::basic_string", %"class.std::__1::basic_string"* %72, i32 0, i32 0
  store %"class.std::__1::__compressed_pair"* %73, %"class.std::__1::__compressed_pair"** %13, align 8
  %74 = load %"class.std::__1::__compressed_pair"*, %"class.std::__1::__compressed_pair"** %13, align 8
  %75 = bitcast %"class.std::__1::__compressed_pair"* %74 to %"class.std::__1::__libcpp_compressed_pair_imp"*
  store %"class.std::__1::__libcpp_compressed_pair_imp"* %75, %"class.std::__1::__libcpp_compressed_pair_imp"** %12, align 8
  %76 = load %"class.std::__1::__libcpp_compressed_pair_imp"*, %"class.std::__1::__libcpp_compressed_pair_imp"** %12, align 8
  %77 = getelementptr inbounds %"class.std::__1::__libcpp_compressed_pair_imp", %"class.std::__1::__libcpp_compressed_pair_imp"* %76, i32 0, i32 0
  %78 = getelementptr inbounds %"struct.std::__1::basic_string<char, std::__1::char_traits<char>, std::__1::allocator<char> >::__rep", %"struct.std::__1::basic_string<char, std::__1::char_traits<char>, std::__1::allocator<char> >::__rep"* %77, i32 0, i32 0
  %79 = bitcast %union.anon* %78 to %"struct.std::__1::basic_string<char, std::__1::char_traits<char>, std::__1::allocator<char> >::__short"*
  %80 = getelementptr inbounds %"struct.std::__1::basic_string<char, std::__1::char_traits<char>, std::__1::allocator<char> >::__short", %"struct.std::__1::basic_string<char, std::__1::char_traits<char>, std::__1::allocator<char> >::__short"* %79, i32 0, i32 0
  %81 = bitcast %union.anon.0* %80 to i8*
  %82 = load i8, i8* %81, align 8
  %83 = zext i8 %82 to i32
  %84 = and i32 %83, 1
  %85 = icmp ne i32 %84, 0
  br i1 %85, label %86, label %97

; <label>:86:                                     ; preds = %68
  store %"class.std::__1::basic_string"* %71, %"class.std::__1::basic_string"** %6, align 8
  %87 = load %"class.std::__1::basic_string"*, %"class.std::__1::basic_string"** %6, align 8
  %88 = getelementptr inbounds %"class.std::__1::basic_string", %"class.std::__1::basic_string"* %87, i32 0, i32 0
  store %"class.std::__1::__compressed_pair"* %88, %"class.std::__1::__compressed_pair"** %5, align 8
  %89 = load %"class.std::__1::__compressed_pair"*, %"class.std::__1::__compressed_pair"** %5, align 8
  %90 = bitcast %"class.std::__1::__compressed_pair"* %89 to %"class.std::__1::__libcpp_compressed_pair_imp"*
  store %"class.std::__1::__libcpp_compressed_pair_imp"* %90, %"class.std::__1::__libcpp_compressed_pair_imp"** %4, align 8
  %91 = load %"class.std::__1::__libcpp_compressed_pair_imp"*, %"class.std::__1::__libcpp_compressed_pair_imp"** %4, align 8
  %92 = getelementptr inbounds %"class.std::__1::__libcpp_compressed_pair_imp", %"class.std::__1::__libcpp_compressed_pair_imp"* %91, i32 0, i32 0
  %93 = getelementptr inbounds %"struct.std::__1::basic_string<char, std::__1::char_traits<char>, std::__1::allocator<char> >::__rep", %"struct.std::__1::basic_string<char, std::__1::char_traits<char>, std::__1::allocator<char> >::__rep"* %92, i32 0, i32 0
  %94 = bitcast %union.anon* %93 to %"struct.std::__1::basic_string<char, std::__1::char_traits<char>, std::__1::allocator<char> >::__long"*
  %95 = getelementptr inbounds %"struct.std::__1::basic_string<char, std::__1::char_traits<char>, std::__1::allocator<char> >::__long", %"struct.std::__1::basic_string<char, std::__1::char_traits<char>, std::__1::allocator<char> >::__long"* %94, i32 0, i32 2
  %96 = load i8*, i8** %95, align 8
  br label %110

; <label>:97:                                     ; preds = %68
  store %"class.std::__1::basic_string"* %71, %"class.std::__1::basic_string"** %11, align 8
  %98 = load %"class.std::__1::basic_string"*, %"class.std::__1::basic_string"** %11, align 8
  %99 = getelementptr inbounds %"class.std::__1::basic_string", %"class.std::__1::basic_string"* %98, i32 0, i32 0
  store %"class.std::__1::__compressed_pair"* %99, %"class.std::__1::__compressed_pair"** %10, align 8
  %100 = load %"class.std::__1::__compressed_pair"*, %"class.std::__1::__compressed_pair"** %10, align 8
  %101 = bitcast %"class.std::__1::__compressed_pair"* %100 to %"class.std::__1::__libcpp_compressed_pair_imp"*
  store %"class.std::__1::__libcpp_compressed_pair_imp"* %101, %"class.std::__1::__libcpp_compressed_pair_imp"** %9, align 8
  %102 = load %"class.std::__1::__libcpp_compressed_pair_imp"*, %"class.std::__1::__libcpp_compressed_pair_imp"** %9, align 8
  %103 = getelementptr inbounds %"class.std::__1::__libcpp_compressed_pair_imp", %"class.std::__1::__libcpp_compressed_pair_imp"* %102, i32 0, i32 0
  %104 = getelementptr inbounds %"struct.std::__1::basic_string<char, std::__1::char_traits<char>, std::__1::allocator<char> >::__rep", %"struct.std::__1::basic_string<char, std::__1::char_traits<char>, std::__1::allocator<char> >::__rep"* %103, i32 0, i32 0
  %105 = bitcast %union.anon* %104 to %"struct.std::__1::basic_string<char, std::__1::char_traits<char>, std::__1::allocator<char> >::__short"*
  %106 = getelementptr inbounds %"struct.std::__1::basic_string<char, std::__1::char_traits<char>, std::__1::allocator<char> >::__short", %"struct.std::__1::basic_string<char, std::__1::char_traits<char>, std::__1::allocator<char> >::__short"* %105, i32 0, i32 1
  %107 = getelementptr inbounds [23 x i8], [23 x i8]* %106, i64 0, i64 0
  store i8* %107, i8** %8, align 8
  %108 = load i8*, i8** %8, align 8
  store i8* %108, i8** %7, align 8
  %109 = load i8*, i8** %7, align 8
  br label %110

; <label>:110:                                    ; preds = %86, %97
  %111 = phi i8* [ %96, %86 ], [ %109, %97 ]
  store i8* %111, i8** %3, align 8
  %112 = load i8*, i8** %3, align 8
  %113 = invoke %struct.__sFILE* @"\01_popen"(i8* %112, i8* getelementptr inbounds ([2 x i8], [2 x i8]* @.str.1, i32 0, i32 0))
          to label %114 unwind label %134

; <label>:114:                                    ; preds = %110
  store %struct.__sFILE* %113, %struct.__sFILE** %30, align 8
  %115 = load %struct.__sFILE*, %struct.__sFILE** %30, align 8
  %116 = icmp ne %struct.__sFILE* %115, null
  br i1 %116, label %117, label %143

; <label>:117:                                    ; preds = %114
  br label %118

; <label>:118:                                    ; preds = %138, %117
  %119 = load %struct.__sFILE*, %struct.__sFILE** %30, align 8
  %120 = invoke i32 @feof(%struct.__sFILE* %119)
          to label %121 unwind label %134

; <label>:121:                                    ; preds = %118
  %122 = icmp ne i32 %120, 0
  %123 = xor i1 %122, true
  br i1 %123, label %124, label %139

; <label>:124:                                    ; preds = %121
  %125 = getelementptr inbounds [256 x i8], [256 x i8]* %32, i32 0, i32 0
  %126 = load %struct.__sFILE*, %struct.__sFILE** %30, align 8
  %127 = invoke i8* @fgets(i8* %125, i32 256, %struct.__sFILE* %126)
          to label %128 unwind label %134

; <label>:128:                                    ; preds = %124
  %129 = icmp ne i8* %127, null
  br i1 %129, label %130, label %138

; <label>:130:                                    ; preds = %128
  %131 = getelementptr inbounds [256 x i8], [256 x i8]* %32, i32 0, i32 0
  %132 = invoke dereferenceable(24) %"class.std::__1::basic_string"* @_ZNSt3__112basic_stringIcNS_11char_traitsIcEENS_9allocatorIcEEE6appendEPKc(%"class.std::__1::basic_string"* %0, i8* %131)
          to label %133 unwind label %134

; <label>:133:                                    ; preds = %130
  br label %138

; <label>:134:                                    ; preds = %139, %130, %124, %118, %110, %66
  %135 = landingpad { i8*, i32 }
          cleanup
  %136 = extractvalue { i8*, i32 } %135, 0
  store i8* %136, i8** %33, align 8
  %137 = extractvalue { i8*, i32 } %135, 1
  store i32 %137, i32* %34, align 4
  invoke void @_ZNSt3__112basic_stringIcNS_11char_traitsIcEENS_9allocatorIcEEED1Ev(%"class.std::__1::basic_string"* %0)
          to label %147 unwind label %153

; <label>:138:                                    ; preds = %133, %128
  br label %118

; <label>:139:                                    ; preds = %121
  %140 = load %struct.__sFILE*, %struct.__sFILE** %30, align 8
  %141 = invoke i32 @pclose(%struct.__sFILE* %140)
          to label %142 unwind label %134

; <label>:142:                                    ; preds = %139
  br label %143

; <label>:143:                                    ; preds = %142, %114
  store i1 true, i1* %29, align 1
  %144 = load i1, i1* %29, align 1
  br i1 %144, label %146, label %145

; <label>:145:                                    ; preds = %143
  call void @_ZNSt3__112basic_stringIcNS_11char_traitsIcEENS_9allocatorIcEEED1Ev(%"class.std::__1::basic_string"* %0)
  br label %146

; <label>:146:                                    ; preds = %145, %143
  ret void

; <label>:147:                                    ; preds = %134
  br label %148

; <label>:148:                                    ; preds = %147
  %149 = load i8*, i8** %33, align 8
  %150 = load i32, i32* %34, align 4
  %151 = insertvalue { i8*, i32 } undef, i8* %149, 0
  %152 = insertvalue { i8*, i32 } %151, i32 %150, 1
  resume { i8*, i32 } %152

; <label>:153:                                    ; preds = %134
  %154 = landingpad { i8*, i32 }
          catch i8* null
  %155 = extractvalue { i8*, i32 } %154, 0
  call void @__clang_call_terminate(i8* %155) #13
  unreachable
}

declare dereferenceable(24) %"class.std::__1::basic_string"* @_ZNSt3__112basic_stringIcNS_11char_traitsIcEENS_9allocatorIcEEE6appendEPKc(%"class.std::__1::basic_string"*, i8*) #1

declare i32 @__gxx_personality_v0(...)

declare %struct.__sFILE* @"\01_popen"(i8*, i8*) #1

declare i32 @feof(%struct.__sFILE*) #1

declare i8* @fgets(i8*, i32, %struct.__sFILE*) #1

declare i32 @pclose(%struct.__sFILE*) #1

declare void @_ZNSt3__112basic_stringIcNS_11char_traitsIcEENS_9allocatorIcEEED1Ev(%"class.std::__1::basic_string"*) unnamed_addr #1

; Function Attrs: noinline noreturn nounwind
define linkonce_odr hidden void @__clang_call_terminate(i8*) #2 {
  %2 = call i8* @__cxa_begin_catch(i8* %0) #12
  call void @_ZSt9terminatev() #13
  unreachable
}

declare i8* @__cxa_begin_catch(i8*)

declare void @_ZSt9terminatev()

; Function Attrs: noinline ssp uwtable
define void @_Z10inverseOfFl(%"class.std::__1::basic_string"* noalias sret, i64) #0 {
  %3 = alloca %"class.std::__1::basic_ostream"*, align 8
  %4 = alloca %"class.std::__1::basic_ostream"* (%"class.std::__1::basic_ostream"*)*, align 8
  %5 = alloca i64, align 8
  store i64 %1, i64* %5, align 8
  %6 = load i64, i64* %5, align 8
  %7 = call dereferenceable(160) %"class.std::__1::basic_ostream"* @_ZNSt3__113basic_ostreamIcNS_11char_traitsIcEEElsEl(%"class.std::__1::basic_ostream"* @_ZNSt3__14coutE, i64 %6)
  store %"class.std::__1::basic_ostream"* %7, %"class.std::__1::basic_ostream"** %3, align 8
  store %"class.std::__1::basic_ostream"* (%"class.std::__1::basic_ostream"*)* @_ZNSt3__14endlIcNS_11char_traitsIcEEEERNS_13basic_ostreamIT_T0_EES7_, %"class.std::__1::basic_ostream"* (%"class.std::__1::basic_ostream"*)** %4, align 8
  %8 = load %"class.std::__1::basic_ostream"*, %"class.std::__1::basic_ostream"** %3, align 8
  %9 = load %"class.std::__1::basic_ostream"* (%"class.std::__1::basic_ostream"*)*, %"class.std::__1::basic_ostream"* (%"class.std::__1::basic_ostream"*)** %4, align 8
  %10 = call dereferenceable(160) %"class.std::__1::basic_ostream"* %9(%"class.std::__1::basic_ostream"* dereferenceable(160) %8)
  %11 = load i64, i64* %5, align 8
  %12 = sub nsw i64 %11, 2
  %13 = sdiv i64 %12, 200
  call void @_ZNSt3__19to_stringEl(%"class.std::__1::basic_string"* sret %0, i64 %13)
  ret void
}

declare dereferenceable(160) %"class.std::__1::basic_ostream"* @_ZNSt3__113basic_ostreamIcNS_11char_traitsIcEEElsEl(%"class.std::__1::basic_ostream"*, i64) #1

; Function Attrs: alwaysinline ssp uwtable
define linkonce_odr hidden dereferenceable(160) %"class.std::__1::basic_ostream"* @_ZNSt3__14endlIcNS_11char_traitsIcEEEERNS_13basic_ostreamIT_T0_EES7_(%"class.std::__1::basic_ostream"* dereferenceable(160)) #3 personality i32 (...)* @__gxx_personality_v0 {
  %2 = alloca %"class.std::__1::ctype"*, align 8
  %3 = alloca i8, align 1
  %4 = alloca %"class.std::__1::locale"*, align 8
  %5 = alloca %"class.std::__1::basic_ios"*, align 8
  %6 = alloca i8, align 1
  %7 = alloca %"class.std::__1::locale", align 8
  %8 = alloca i8*
  %9 = alloca i32
  %10 = alloca %"class.std::__1::basic_ostream"*, align 8
  store %"class.std::__1::basic_ostream"* %0, %"class.std::__1::basic_ostream"** %10, align 8
  %11 = load %"class.std::__1::basic_ostream"*, %"class.std::__1::basic_ostream"** %10, align 8
  %12 = load %"class.std::__1::basic_ostream"*, %"class.std::__1::basic_ostream"** %10, align 8
  %13 = bitcast %"class.std::__1::basic_ostream"* %12 to i8**
  %14 = load i8*, i8** %13, align 8
  %15 = getelementptr i8, i8* %14, i64 -24
  %16 = bitcast i8* %15 to i64*
  %17 = load i64, i64* %16, align 8
  %18 = bitcast %"class.std::__1::basic_ostream"* %12 to i8*
  %19 = getelementptr inbounds i8, i8* %18, i64 %17
  %20 = bitcast i8* %19 to %"class.std::__1::basic_ios"*
  store %"class.std::__1::basic_ios"* %20, %"class.std::__1::basic_ios"** %5, align 8
  store i8 10, i8* %6, align 1
  %21 = load %"class.std::__1::basic_ios"*, %"class.std::__1::basic_ios"** %5, align 8
  %22 = bitcast %"class.std::__1::basic_ios"* %21 to %"class.std::__1::ios_base"*
  call void @_ZNKSt3__18ios_base6getlocEv(%"class.std::__1::locale"* sret %7, %"class.std::__1::ios_base"* %22)
  store %"class.std::__1::locale"* %7, %"class.std::__1::locale"** %4, align 8
  %23 = load %"class.std::__1::locale"*, %"class.std::__1::locale"** %4, align 8
  %24 = invoke %"class.std::__1::locale::facet"* @_ZNKSt3__16locale9use_facetERNS0_2idE(%"class.std::__1::locale"* %23, %"class.std::__1::locale::id"* dereferenceable(16) @_ZNSt3__15ctypeIcE2idE)
          to label %25 unwind label %35

; <label>:25:                                     ; preds = %1
  %26 = bitcast %"class.std::__1::locale::facet"* %24 to %"class.std::__1::ctype"*
  %27 = load i8, i8* %6, align 1
  store %"class.std::__1::ctype"* %26, %"class.std::__1::ctype"** %2, align 8
  store i8 %27, i8* %3, align 1
  %28 = load %"class.std::__1::ctype"*, %"class.std::__1::ctype"** %2, align 8
  %29 = bitcast %"class.std::__1::ctype"* %28 to i8 (%"class.std::__1::ctype"*, i8)***
  %30 = load i8 (%"class.std::__1::ctype"*, i8)**, i8 (%"class.std::__1::ctype"*, i8)*** %29, align 8
  %31 = getelementptr inbounds i8 (%"class.std::__1::ctype"*, i8)*, i8 (%"class.std::__1::ctype"*, i8)** %30, i64 7
  %32 = load i8 (%"class.std::__1::ctype"*, i8)*, i8 (%"class.std::__1::ctype"*, i8)** %31, align 8
  %33 = load i8, i8* %3, align 1
  %34 = invoke signext i8 %32(%"class.std::__1::ctype"* %28, i8 signext %33)
          to label %47 unwind label %35

; <label>:35:                                     ; preds = %25, %1
  %36 = landingpad { i8*, i32 }
          cleanup
  %37 = extractvalue { i8*, i32 } %36, 0
  store i8* %37, i8** %8, align 8
  %38 = extractvalue { i8*, i32 } %36, 1
  store i32 %38, i32* %9, align 4
  invoke void @_ZNSt3__16localeD1Ev(%"class.std::__1::locale"* %7)
          to label %39 unwind label %44

; <label>:39:                                     ; preds = %35
  %40 = load i8*, i8** %8, align 8
  %41 = load i32, i32* %9, align 4
  %42 = insertvalue { i8*, i32 } undef, i8* %40, 0
  %43 = insertvalue { i8*, i32 } %42, i32 %41, 1
  resume { i8*, i32 } %43

; <label>:44:                                     ; preds = %35
  %45 = landingpad { i8*, i32 }
          catch i8* null
  %46 = extractvalue { i8*, i32 } %45, 0
  call void @__clang_call_terminate(i8* %46) #13
  unreachable

; <label>:47:                                     ; preds = %25
  call void @_ZNSt3__16localeD1Ev(%"class.std::__1::locale"* %7)
  %48 = call dereferenceable(160) %"class.std::__1::basic_ostream"* @_ZNSt3__113basic_ostreamIcNS_11char_traitsIcEEE3putEc(%"class.std::__1::basic_ostream"* %11, i8 signext %34)
  %49 = load %"class.std::__1::basic_ostream"*, %"class.std::__1::basic_ostream"** %10, align 8
  %50 = call dereferenceable(160) %"class.std::__1::basic_ostream"* @_ZNSt3__113basic_ostreamIcNS_11char_traitsIcEEE5flushEv(%"class.std::__1::basic_ostream"* %49)
  %51 = load %"class.std::__1::basic_ostream"*, %"class.std::__1::basic_ostream"** %10, align 8
  ret %"class.std::__1::basic_ostream"* %51
}

declare void @_ZNSt3__19to_stringEl(%"class.std::__1::basic_string"* sret, i64) #1

; Function Attrs: noinline nounwind ssp uwtable
define i64 @_Z26inverseOfSharableFunctionGi(i32) #4 {
  %2 = alloca i32, align 4
  store i32 %0, i32* %2, align 4
  %3 = load i32, i32* %2, align 4
  %4 = sub nsw i32 %3, 10
  %5 = sdiv i32 %4, 8
  %6 = sext i32 %5 to i64
  ret i64 %6
}

; Function Attrs: noinline ssp uwtable
define zeroext i1 @_Z12checkLicenseNSt3__112basic_stringIcNS_11char_traitsIcEENS_9allocatorIcEEEES5_S5_(%"class.std::__1::basic_string"*, %"class.std::__1::basic_string"*, %"class.std::__1::basic_string"*) #0 personality i8* bitcast (i32 (...)* @__gxx_personality_v0 to i8*) {
  %4 = alloca %"class.std::__1::__libcpp_compressed_pair_imp"*, align 8
  %5 = alloca %"class.std::__1::__compressed_pair"*, align 8
  %6 = alloca %"class.std::__1::basic_string"*, align 8
  %7 = alloca %"class.std::__1::__libcpp_compressed_pair_imp"*, align 8
  %8 = alloca %"class.std::__1::__compressed_pair"*, align 8
  %9 = alloca %"class.std::__1::basic_string"*, align 8
  %10 = alloca %"class.std::__1::__libcpp_compressed_pair_imp"*, align 8
  %11 = alloca %"class.std::__1::__compressed_pair"*, align 8
  %12 = alloca %"class.std::__1::basic_string"*, align 8
  %13 = alloca %"class.std::__1::basic_string"*, align 8
  %14 = alloca i8*, align 8
  %15 = alloca %"class.std::__1::__libcpp_compressed_pair_imp"*, align 8
  %16 = alloca %"class.std::__1::__compressed_pair"*, align 8
  %17 = alloca %"class.std::__1::basic_string"*, align 8
  %18 = alloca i8*, align 8
  %19 = alloca i8*, align 8
  %20 = alloca %"class.std::__1::__libcpp_compressed_pair_imp"*, align 8
  %21 = alloca %"class.std::__1::__compressed_pair"*, align 8
  %22 = alloca %"class.std::__1::basic_string"*, align 8
  %23 = alloca %"class.std::__1::__libcpp_compressed_pair_imp"*, align 8
  %24 = alloca %"class.std::__1::__compressed_pair"*, align 8
  %25 = alloca %"class.std::__1::basic_string"*, align 8
  %26 = alloca %"class.std::__1::basic_string"*, align 8
  %27 = alloca %"class.std::__1::basic_string"*, align 8
  %28 = alloca %"class.std::__1::basic_string"*, align 8
  %29 = alloca %"class.std::__1::basic_string"*, align 8
  %30 = alloca %"class.std::__1::basic_string"*, align 8
  %31 = alloca %"class.std::__1::basic_string"*, align 8
  %32 = alloca %"class.std::__1::allocator"*, align 8
  %33 = alloca %"class.std::__1::__libcpp_compressed_pair_imp"*, align 8
  %34 = alloca %"class.std::__1::__compressed_pair"*, align 8
  %35 = alloca %"class.std::__1::__compressed_pair"*, align 8
  %36 = alloca %"class.std::__1::basic_string"*, align 8
  %37 = alloca i64, align 8
  %38 = alloca i8, align 1
  %39 = alloca %"class.std::__1::basic_string"*, align 8
  %40 = alloca i64, align 8
  %41 = alloca i8, align 1
  %42 = alloca %"class.std::__1::__libcpp_compressed_pair_imp"*, align 8
  %43 = alloca %"class.std::__1::__compressed_pair"*, align 8
  %44 = alloca %"class.std::__1::basic_string"*, align 8
  %45 = alloca i8*, align 8
  %46 = alloca i8*, align 8
  %47 = alloca %"class.std::__1::__libcpp_compressed_pair_imp"*, align 8
  %48 = alloca %"class.std::__1::__compressed_pair"*, align 8
  %49 = alloca %"class.std::__1::basic_string"*, align 8
  %50 = alloca %"class.std::__1::__libcpp_compressed_pair_imp"*, align 8
  %51 = alloca %"class.std::__1::__compressed_pair"*, align 8
  %52 = alloca %"class.std::__1::basic_string"*, align 8
  %53 = alloca %"class.std::__1::basic_string"*, align 8
  %54 = alloca %"class.std::__1::basic_string"*, align 8
  %55 = alloca i64, align 8
  %56 = alloca %"class.std::__1::basic_string"*, align 8
  %57 = alloca i8*, align 8
  %58 = alloca i8*, align 8
  %59 = alloca %"class.std::__1::__libcpp_compressed_pair_imp"*, align 8
  %60 = alloca %"class.std::__1::__compressed_pair"*, align 8
  %61 = alloca %"class.std::__1::basic_string"*, align 8
  %62 = alloca i8*, align 8
  %63 = alloca i8*, align 8
  %64 = alloca %"class.std::__1::__libcpp_compressed_pair_imp"*, align 8
  %65 = alloca %"class.std::__1::__compressed_pair"*, align 8
  %66 = alloca %"class.std::__1::basic_string"*, align 8
  %67 = alloca %"class.std::__1::__libcpp_compressed_pair_imp"*, align 8
  %68 = alloca %"class.std::__1::__compressed_pair"*, align 8
  %69 = alloca %"class.std::__1::basic_string"*, align 8
  %70 = alloca %"class.std::__1::basic_string"*, align 8
  %71 = alloca %"class.std::__1::basic_string"*, align 8
  %72 = alloca i8*, align 8
  %73 = alloca %"class.std::__1::__libcpp_compressed_pair_imp"*, align 8
  %74 = alloca %"class.std::__1::__compressed_pair"*, align 8
  %75 = alloca %"class.std::__1::basic_string"*, align 8
  %76 = alloca i8*, align 8
  %77 = alloca i8*, align 8
  %78 = alloca %"class.std::__1::__libcpp_compressed_pair_imp"*, align 8
  %79 = alloca %"class.std::__1::__compressed_pair"*, align 8
  %80 = alloca %"class.std::__1::basic_string"*, align 8
  %81 = alloca %"class.std::__1::__libcpp_compressed_pair_imp"*, align 8
  %82 = alloca %"class.std::__1::__compressed_pair"*, align 8
  %83 = alloca %"class.std::__1::basic_string"*, align 8
  %84 = alloca %"class.std::__1::basic_string"*, align 8
  %85 = alloca %"class.std::__1::basic_string"*, align 8
  %86 = alloca %"struct.std::__1::__less"*, align 8
  %87 = alloca i64*, align 8
  %88 = alloca i64*, align 8
  %89 = alloca i64*
  %90 = alloca i64*
  %91 = alloca %"struct.std::__1::__less", align 1
  %92 = alloca i64*, align 8
  %93 = alloca i64*, align 8
  %94 = alloca i32
  %95 = alloca i64*
  %96 = alloca i64*, align 8
  %97 = alloca i64*, align 8
  %98 = alloca %"struct.std::__1::__less", align 1
  %99 = alloca %"class.std::__1::__libcpp_compressed_pair_imp"*, align 8
  %100 = alloca %"class.std::__1::__compressed_pair"*, align 8
  %101 = alloca %"class.std::__1::basic_string"*, align 8
  %102 = alloca %"class.std::__1::__libcpp_compressed_pair_imp"*, align 8
  %103 = alloca %"class.std::__1::__compressed_pair"*, align 8
  %104 = alloca %"class.std::__1::basic_string"*, align 8
  %105 = alloca %"class.std::__1::__libcpp_compressed_pair_imp"*, align 8
  %106 = alloca %"class.std::__1::__compressed_pair"*, align 8
  %107 = alloca %"class.std::__1::basic_string"*, align 8
  %108 = alloca %"class.std::__1::basic_string"*, align 8
  %109 = alloca %"class.std::__1::__libcpp_compressed_pair_imp"*, align 8
  %110 = alloca %"class.std::__1::__compressed_pair"*, align 8
  %111 = alloca %"class.std::__1::basic_string"*, align 8
  %112 = alloca %"class.std::__1::__libcpp_compressed_pair_imp"*, align 8
  %113 = alloca %"class.std::__1::__compressed_pair"*, align 8
  %114 = alloca %"class.std::__1::basic_string"*, align 8
  %115 = alloca %"class.std::__1::__libcpp_compressed_pair_imp"*, align 8
  %116 = alloca %"class.std::__1::__compressed_pair"*, align 8
  %117 = alloca %"class.std::__1::basic_string"*, align 8
  %118 = alloca %"class.std::__1::basic_string"*, align 8
  %119 = alloca i32, align 4
  %120 = alloca %"class.std::__1::basic_string"*, align 8
  %121 = alloca %"class.std::__1::basic_string"*, align 8
  %122 = alloca i64, align 8
  %123 = alloca i64, align 8
  %124 = alloca i32, align 4
  %125 = alloca i8*
  %126 = alloca i32
  %127 = alloca %"class.std::__1::basic_ostream"*, align 8
  %128 = alloca %"class.std::__1::basic_ostream"* (%"class.std::__1::basic_ostream"*)*, align 8
  %129 = alloca %"class.std::__1::basic_ostream"*, align 8
  %130 = alloca %"class.std::__1::basic_ostream"* (%"class.std::__1::basic_ostream"*)*, align 8
  %131 = alloca %"class.std::__1::__libcpp_compressed_pair_imp"*, align 8
  %132 = alloca %"class.std::__1::__compressed_pair"*, align 8
  %133 = alloca %"class.std::__1::basic_string"*, align 8
  %134 = alloca %"class.std::__1::__libcpp_compressed_pair_imp"*, align 8
  %135 = alloca %"class.std::__1::__compressed_pair"*, align 8
  %136 = alloca %"class.std::__1::basic_string"*, align 8
  %137 = alloca %"class.std::__1::__libcpp_compressed_pair_imp"*, align 8
  %138 = alloca %"class.std::__1::__compressed_pair"*, align 8
  %139 = alloca %"class.std::__1::basic_string"*, align 8
  %140 = alloca %"class.std::__1::basic_string"*, align 8
  %141 = alloca i8*, align 8
  %142 = alloca %"class.std::__1::__libcpp_compressed_pair_imp"*, align 8
  %143 = alloca %"class.std::__1::__compressed_pair"*, align 8
  %144 = alloca %"class.std::__1::basic_string"*, align 8
  %145 = alloca i8*, align 8
  %146 = alloca i8*, align 8
  %147 = alloca %"class.std::__1::__libcpp_compressed_pair_imp"*, align 8
  %148 = alloca %"class.std::__1::__compressed_pair"*, align 8
  %149 = alloca %"class.std::__1::basic_string"*, align 8
  %150 = alloca %"class.std::__1::__libcpp_compressed_pair_imp"*, align 8
  %151 = alloca %"class.std::__1::__compressed_pair"*, align 8
  %152 = alloca %"class.std::__1::basic_string"*, align 8
  %153 = alloca %"class.std::__1::basic_string"*, align 8
  %154 = alloca %"class.std::__1::basic_string"*, align 8
  %155 = alloca %"class.std::__1::basic_string"*, align 8
  %156 = alloca %"class.std::__1::basic_string"*, align 8
  %157 = alloca %"class.std::__1::basic_string"*, align 8
  %158 = alloca %"class.std::__1::basic_string"*, align 8
  %159 = alloca %"class.std::__1::allocator"*, align 8
  %160 = alloca %"class.std::__1::__libcpp_compressed_pair_imp"*, align 8
  %161 = alloca %"class.std::__1::__compressed_pair"*, align 8
  %162 = alloca %"class.std::__1::__compressed_pair"*, align 8
  %163 = alloca %"class.std::__1::basic_string"*, align 8
  %164 = alloca i64, align 8
  %165 = alloca i8, align 1
  %166 = alloca %"class.std::__1::basic_string"*, align 8
  %167 = alloca i64, align 8
  %168 = alloca i8, align 1
  %169 = alloca %"class.std::__1::__libcpp_compressed_pair_imp"*, align 8
  %170 = alloca %"class.std::__1::__compressed_pair"*, align 8
  %171 = alloca %"class.std::__1::basic_string"*, align 8
  %172 = alloca i8*, align 8
  %173 = alloca i8*, align 8
  %174 = alloca %"class.std::__1::__libcpp_compressed_pair_imp"*, align 8
  %175 = alloca %"class.std::__1::__compressed_pair"*, align 8
  %176 = alloca %"class.std::__1::basic_string"*, align 8
  %177 = alloca %"class.std::__1::__libcpp_compressed_pair_imp"*, align 8
  %178 = alloca %"class.std::__1::__compressed_pair"*, align 8
  %179 = alloca %"class.std::__1::basic_string"*, align 8
  %180 = alloca %"class.std::__1::basic_string"*, align 8
  %181 = alloca %"class.std::__1::basic_string"*, align 8
  %182 = alloca i64, align 8
  %183 = alloca %"class.std::__1::basic_ostream"*, align 8
  %184 = alloca %"class.std::__1::basic_ostream"* (%"class.std::__1::basic_ostream"*)*, align 8
  %185 = alloca %"class.std::__1::__libcpp_compressed_pair_imp"*, align 8
  %186 = alloca %"class.std::__1::__compressed_pair"*, align 8
  %187 = alloca %"class.std::__1::basic_string"*, align 8
  %188 = alloca [3 x i64]*, align 8
  %189 = alloca i32, align 4
  %190 = alloca %"class.std::__1::allocator"*, align 8
  %191 = alloca %"class.std::__1::__libcpp_compressed_pair_imp"*, align 8
  %192 = alloca %"class.std::__1::__compressed_pair"*, align 8
  %193 = alloca %"class.std::__1::__compressed_pair"*, align 8
  %194 = alloca %"class.std::__1::basic_string"*, align 8
  %195 = alloca %"class.std::__1::basic_string"*, align 8
  %196 = alloca %"class.std::__1::__libcpp_compressed_pair_imp"*, align 8
  %197 = alloca %"class.std::__1::__compressed_pair"*, align 8
  %198 = alloca %"class.std::__1::basic_string"*, align 8
  %199 = alloca %"class.std::__1::__libcpp_compressed_pair_imp"*, align 8
  %200 = alloca %"class.std::__1::__compressed_pair"*, align 8
  %201 = alloca %"class.std::__1::basic_string"*, align 8
  %202 = alloca %"class.std::__1::__libcpp_compressed_pair_imp"*, align 8
  %203 = alloca %"class.std::__1::__compressed_pair"*, align 8
  %204 = alloca %"class.std::__1::basic_string"*, align 8
  %205 = alloca %"class.std::__1::basic_string"*, align 8
  %206 = alloca %"class.std::__1::basic_string"*, align 8
  %207 = alloca i1, align 1
  %208 = alloca i64, align 8
  %209 = alloca %"class.std::__1::basic_string", align 8
  %210 = alloca i64, align 8
  %211 = alloca %"class.std::__1::basic_string", align 8
  %212 = alloca %"class.std::__1::basic_string", align 8
  %213 = alloca i8*
  %214 = alloca i32
  %215 = alloca %"class.std::__1::basic_string", align 8
  %216 = alloca %"class.std::__1::basic_string", align 8
  %217 = alloca %"class.std::__1::basic_string", align 8
  %218 = alloca i32
  %219 = alloca i64, align 8
  %220 = alloca %"class.std::__1::basic_string", align 8
  %221 = alloca i64, align 8
  store %"class.std::__1::basic_string"* %0, %"class.std::__1::basic_string"** %206, align 8
  %222 = load %"class.std::__1::basic_string"*, %"class.std::__1::basic_string"** %206, align 8
  store %"class.std::__1::basic_string"* %222, %"class.std::__1::basic_string"** %205, align 8
  %223 = load %"class.std::__1::basic_string"*, %"class.std::__1::basic_string"** %205, align 8
  store %"class.std::__1::basic_string"* %223, %"class.std::__1::basic_string"** %204, align 8
  %224 = load %"class.std::__1::basic_string"*, %"class.std::__1::basic_string"** %204, align 8
  %225 = getelementptr inbounds %"class.std::__1::basic_string", %"class.std::__1::basic_string"* %224, i32 0, i32 0
  store %"class.std::__1::__compressed_pair"* %225, %"class.std::__1::__compressed_pair"** %203, align 8
  %226 = load %"class.std::__1::__compressed_pair"*, %"class.std::__1::__compressed_pair"** %203, align 8
  %227 = bitcast %"class.std::__1::__compressed_pair"* %226 to %"class.std::__1::__libcpp_compressed_pair_imp"*
  store %"class.std::__1::__libcpp_compressed_pair_imp"* %227, %"class.std::__1::__libcpp_compressed_pair_imp"** %202, align 8
  %228 = load %"class.std::__1::__libcpp_compressed_pair_imp"*, %"class.std::__1::__libcpp_compressed_pair_imp"** %202, align 8
  %229 = getelementptr inbounds %"class.std::__1::__libcpp_compressed_pair_imp", %"class.std::__1::__libcpp_compressed_pair_imp"* %228, i32 0, i32 0
  %230 = getelementptr inbounds %"struct.std::__1::basic_string<char, std::__1::char_traits<char>, std::__1::allocator<char> >::__rep", %"struct.std::__1::basic_string<char, std::__1::char_traits<char>, std::__1::allocator<char> >::__rep"* %229, i32 0, i32 0
  %231 = bitcast %union.anon* %230 to %"struct.std::__1::basic_string<char, std::__1::char_traits<char>, std::__1::allocator<char> >::__short"*
  %232 = getelementptr inbounds %"struct.std::__1::basic_string<char, std::__1::char_traits<char>, std::__1::allocator<char> >::__short", %"struct.std::__1::basic_string<char, std::__1::char_traits<char>, std::__1::allocator<char> >::__short"* %231, i32 0, i32 0
  %233 = bitcast %union.anon.0* %232 to i8*
  %234 = load i8, i8* %233, align 8
  %235 = zext i8 %234 to i32
  %236 = and i32 %235, 1
  %237 = icmp ne i32 %236, 0
  br i1 %237, label %238, label %249

; <label>:238:                                    ; preds = %3
  store %"class.std::__1::basic_string"* %223, %"class.std::__1::basic_string"** %198, align 8
  %239 = load %"class.std::__1::basic_string"*, %"class.std::__1::basic_string"** %198, align 8
  %240 = getelementptr inbounds %"class.std::__1::basic_string", %"class.std::__1::basic_string"* %239, i32 0, i32 0
  store %"class.std::__1::__compressed_pair"* %240, %"class.std::__1::__compressed_pair"** %197, align 8
  %241 = load %"class.std::__1::__compressed_pair"*, %"class.std::__1::__compressed_pair"** %197, align 8
  %242 = bitcast %"class.std::__1::__compressed_pair"* %241 to %"class.std::__1::__libcpp_compressed_pair_imp"*
  store %"class.std::__1::__libcpp_compressed_pair_imp"* %242, %"class.std::__1::__libcpp_compressed_pair_imp"** %196, align 8
  %243 = load %"class.std::__1::__libcpp_compressed_pair_imp"*, %"class.std::__1::__libcpp_compressed_pair_imp"** %196, align 8
  %244 = getelementptr inbounds %"class.std::__1::__libcpp_compressed_pair_imp", %"class.std::__1::__libcpp_compressed_pair_imp"* %243, i32 0, i32 0
  %245 = getelementptr inbounds %"struct.std::__1::basic_string<char, std::__1::char_traits<char>, std::__1::allocator<char> >::__rep", %"struct.std::__1::basic_string<char, std::__1::char_traits<char>, std::__1::allocator<char> >::__rep"* %244, i32 0, i32 0
  %246 = bitcast %union.anon* %245 to %"struct.std::__1::basic_string<char, std::__1::char_traits<char>, std::__1::allocator<char> >::__long"*
  %247 = getelementptr inbounds %"struct.std::__1::basic_string<char, std::__1::char_traits<char>, std::__1::allocator<char> >::__long", %"struct.std::__1::basic_string<char, std::__1::char_traits<char>, std::__1::allocator<char> >::__long"* %246, i32 0, i32 1
  %248 = load i64, i64* %247, align 8
  br label %264

; <label>:249:                                    ; preds = %3
  store %"class.std::__1::basic_string"* %223, %"class.std::__1::basic_string"** %201, align 8
  %250 = load %"class.std::__1::basic_string"*, %"class.std::__1::basic_string"** %201, align 8
  %251 = getelementptr inbounds %"class.std::__1::basic_string", %"class.std::__1::basic_string"* %250, i32 0, i32 0
  store %"class.std::__1::__compressed_pair"* %251, %"class.std::__1::__compressed_pair"** %200, align 8
  %252 = load %"class.std::__1::__compressed_pair"*, %"class.std::__1::__compressed_pair"** %200, align 8
  %253 = bitcast %"class.std::__1::__compressed_pair"* %252 to %"class.std::__1::__libcpp_compressed_pair_imp"*
  store %"class.std::__1::__libcpp_compressed_pair_imp"* %253, %"class.std::__1::__libcpp_compressed_pair_imp"** %199, align 8
  %254 = load %"class.std::__1::__libcpp_compressed_pair_imp"*, %"class.std::__1::__libcpp_compressed_pair_imp"** %199, align 8
  %255 = getelementptr inbounds %"class.std::__1::__libcpp_compressed_pair_imp", %"class.std::__1::__libcpp_compressed_pair_imp"* %254, i32 0, i32 0
  %256 = getelementptr inbounds %"struct.std::__1::basic_string<char, std::__1::char_traits<char>, std::__1::allocator<char> >::__rep", %"struct.std::__1::basic_string<char, std::__1::char_traits<char>, std::__1::allocator<char> >::__rep"* %255, i32 0, i32 0
  %257 = bitcast %union.anon* %256 to %"struct.std::__1::basic_string<char, std::__1::char_traits<char>, std::__1::allocator<char> >::__short"*
  %258 = getelementptr inbounds %"struct.std::__1::basic_string<char, std::__1::char_traits<char>, std::__1::allocator<char> >::__short", %"struct.std::__1::basic_string<char, std::__1::char_traits<char>, std::__1::allocator<char> >::__short"* %257, i32 0, i32 0
  %259 = bitcast %union.anon.0* %258 to i8*
  %260 = load i8, i8* %259, align 8
  %261 = zext i8 %260 to i32
  %262 = ashr i32 %261, 1
  %263 = sext i32 %262 to i64
  br label %264

; <label>:264:                                    ; preds = %238, %249
  %265 = phi i64 [ %248, %238 ], [ %263, %249 ]
  store i64 %265, i64* %208, align 8
  store %"class.std::__1::basic_string"* %209, %"class.std::__1::basic_string"** %195, align 8
  %266 = load %"class.std::__1::basic_string"*, %"class.std::__1::basic_string"** %195, align 8
  store %"class.std::__1::basic_string"* %266, %"class.std::__1::basic_string"** %194, align 8
  %267 = load %"class.std::__1::basic_string"*, %"class.std::__1::basic_string"** %194, align 8
  %268 = bitcast %"class.std::__1::basic_string"* %267 to %"class.std::__1::__basic_string_common"*
  %269 = getelementptr inbounds %"class.std::__1::basic_string", %"class.std::__1::basic_string"* %267, i32 0, i32 0
  store %"class.std::__1::__compressed_pair"* %269, %"class.std::__1::__compressed_pair"** %193, align 8
  %270 = load %"class.std::__1::__compressed_pair"*, %"class.std::__1::__compressed_pair"** %193, align 8
  store %"class.std::__1::__compressed_pair"* %270, %"class.std::__1::__compressed_pair"** %192, align 8
  %271 = load %"class.std::__1::__compressed_pair"*, %"class.std::__1::__compressed_pair"** %192, align 8
  %272 = bitcast %"class.std::__1::__compressed_pair"* %271 to %"class.std::__1::__libcpp_compressed_pair_imp"*
  store %"class.std::__1::__libcpp_compressed_pair_imp"* %272, %"class.std::__1::__libcpp_compressed_pair_imp"** %191, align 8
  %273 = load %"class.std::__1::__libcpp_compressed_pair_imp"*, %"class.std::__1::__libcpp_compressed_pair_imp"** %191, align 8
  %274 = bitcast %"class.std::__1::__libcpp_compressed_pair_imp"* %273 to %"class.std::__1::allocator"*
  store %"class.std::__1::allocator"* %274, %"class.std::__1::allocator"** %190, align 8
  %275 = load %"class.std::__1::allocator"*, %"class.std::__1::allocator"** %190, align 8
  %276 = getelementptr inbounds %"class.std::__1::__libcpp_compressed_pair_imp", %"class.std::__1::__libcpp_compressed_pair_imp"* %273, i32 0, i32 0
  %277 = bitcast %"struct.std::__1::basic_string<char, std::__1::char_traits<char>, std::__1::allocator<char> >::__rep"* %276 to i8*
  call void @llvm.memset.p0i8.i64(i8* %277, i8 0, i64 24, i32 8, i1 false) #12
  store %"class.std::__1::basic_string"* %267, %"class.std::__1::basic_string"** %187, align 8
  %278 = load %"class.std::__1::basic_string"*, %"class.std::__1::basic_string"** %187, align 8
  %279 = getelementptr inbounds %"class.std::__1::basic_string", %"class.std::__1::basic_string"* %278, i32 0, i32 0
  store %"class.std::__1::__compressed_pair"* %279, %"class.std::__1::__compressed_pair"** %186, align 8
  %280 = load %"class.std::__1::__compressed_pair"*, %"class.std::__1::__compressed_pair"** %186, align 8
  %281 = bitcast %"class.std::__1::__compressed_pair"* %280 to %"class.std::__1::__libcpp_compressed_pair_imp"*
  store %"class.std::__1::__libcpp_compressed_pair_imp"* %281, %"class.std::__1::__libcpp_compressed_pair_imp"** %185, align 8
  %282 = load %"class.std::__1::__libcpp_compressed_pair_imp"*, %"class.std::__1::__libcpp_compressed_pair_imp"** %185, align 8
  %283 = getelementptr inbounds %"class.std::__1::__libcpp_compressed_pair_imp", %"class.std::__1::__libcpp_compressed_pair_imp"* %282, i32 0, i32 0
  %284 = getelementptr inbounds %"struct.std::__1::basic_string<char, std::__1::char_traits<char>, std::__1::allocator<char> >::__rep", %"struct.std::__1::basic_string<char, std::__1::char_traits<char>, std::__1::allocator<char> >::__rep"* %283, i32 0, i32 0
  %285 = bitcast %union.anon* %284 to %"struct.std::__1::basic_string<char, std::__1::char_traits<char>, std::__1::allocator<char> >::__raw"*
  %286 = getelementptr inbounds %"struct.std::__1::basic_string<char, std::__1::char_traits<char>, std::__1::allocator<char> >::__raw", %"struct.std::__1::basic_string<char, std::__1::char_traits<char>, std::__1::allocator<char> >::__raw"* %285, i32 0, i32 0
  store [3 x i64]* %286, [3 x i64]** %188, align 8
  store i32 0, i32* %189, align 4
  br label %287

; <label>:287:                                    ; preds = %290, %264
  %288 = load i32, i32* %189, align 4
  %289 = icmp ult i32 %288, 3
  br i1 %289, label %290, label %297

; <label>:290:                                    ; preds = %287
  %291 = load [3 x i64]*, [3 x i64]** %188, align 8
  %292 = load i32, i32* %189, align 4
  %293 = zext i32 %292 to i64
  %294 = getelementptr inbounds [3 x i64], [3 x i64]* %291, i64 0, i64 %293
  store i64 0, i64* %294, align 8
  %295 = load i32, i32* %189, align 4
  %296 = add i32 %295, 1
  store i32 %296, i32* %189, align 4
  br label %287

; <label>:297:                                    ; preds = %287
  store i64 9, i64* %210, align 8
  br label %298

; <label>:298:                                    ; preds = %467, %297
  %299 = load i64, i64* %210, align 8
  %300 = load i64, i64* %208, align 8
  %301 = icmp slt i64 %299, %300
  br i1 %301, label %302, label %485

; <label>:302:                                    ; preds = %298
  %303 = load i64, i64* %210, align 8
  store %"class.std::__1::basic_string"* %0, %"class.std::__1::basic_string"** %181, align 8
  store i64 %303, i64* %182, align 8
  %304 = load %"class.std::__1::basic_string"*, %"class.std::__1::basic_string"** %181, align 8
  store %"class.std::__1::basic_string"* %304, %"class.std::__1::basic_string"** %180, align 8
  %305 = load %"class.std::__1::basic_string"*, %"class.std::__1::basic_string"** %180, align 8
  store %"class.std::__1::basic_string"* %305, %"class.std::__1::basic_string"** %179, align 8
  %306 = load %"class.std::__1::basic_string"*, %"class.std::__1::basic_string"** %179, align 8
  %307 = getelementptr inbounds %"class.std::__1::basic_string", %"class.std::__1::basic_string"* %306, i32 0, i32 0
  store %"class.std::__1::__compressed_pair"* %307, %"class.std::__1::__compressed_pair"** %178, align 8
  %308 = load %"class.std::__1::__compressed_pair"*, %"class.std::__1::__compressed_pair"** %178, align 8
  %309 = bitcast %"class.std::__1::__compressed_pair"* %308 to %"class.std::__1::__libcpp_compressed_pair_imp"*
  store %"class.std::__1::__libcpp_compressed_pair_imp"* %309, %"class.std::__1::__libcpp_compressed_pair_imp"** %177, align 8
  %310 = load %"class.std::__1::__libcpp_compressed_pair_imp"*, %"class.std::__1::__libcpp_compressed_pair_imp"** %177, align 8
  %311 = getelementptr inbounds %"class.std::__1::__libcpp_compressed_pair_imp", %"class.std::__1::__libcpp_compressed_pair_imp"* %310, i32 0, i32 0
  %312 = getelementptr inbounds %"struct.std::__1::basic_string<char, std::__1::char_traits<char>, std::__1::allocator<char> >::__rep", %"struct.std::__1::basic_string<char, std::__1::char_traits<char>, std::__1::allocator<char> >::__rep"* %311, i32 0, i32 0
  %313 = bitcast %union.anon* %312 to %"struct.std::__1::basic_string<char, std::__1::char_traits<char>, std::__1::allocator<char> >::__short"*
  %314 = getelementptr inbounds %"struct.std::__1::basic_string<char, std::__1::char_traits<char>, std::__1::allocator<char> >::__short", %"struct.std::__1::basic_string<char, std::__1::char_traits<char>, std::__1::allocator<char> >::__short"* %313, i32 0, i32 0
  %315 = bitcast %union.anon.0* %314 to i8*
  %316 = load i8, i8* %315, align 8
  %317 = zext i8 %316 to i32
  %318 = and i32 %317, 1
  %319 = icmp ne i32 %318, 0
  br i1 %319, label %320, label %331

; <label>:320:                                    ; preds = %302
  store %"class.std::__1::basic_string"* %305, %"class.std::__1::basic_string"** %171, align 8
  %321 = load %"class.std::__1::basic_string"*, %"class.std::__1::basic_string"** %171, align 8
  %322 = getelementptr inbounds %"class.std::__1::basic_string", %"class.std::__1::basic_string"* %321, i32 0, i32 0
  store %"class.std::__1::__compressed_pair"* %322, %"class.std::__1::__compressed_pair"** %170, align 8
  %323 = load %"class.std::__1::__compressed_pair"*, %"class.std::__1::__compressed_pair"** %170, align 8
  %324 = bitcast %"class.std::__1::__compressed_pair"* %323 to %"class.std::__1::__libcpp_compressed_pair_imp"*
  store %"class.std::__1::__libcpp_compressed_pair_imp"* %324, %"class.std::__1::__libcpp_compressed_pair_imp"** %169, align 8
  %325 = load %"class.std::__1::__libcpp_compressed_pair_imp"*, %"class.std::__1::__libcpp_compressed_pair_imp"** %169, align 8
  %326 = getelementptr inbounds %"class.std::__1::__libcpp_compressed_pair_imp", %"class.std::__1::__libcpp_compressed_pair_imp"* %325, i32 0, i32 0
  %327 = getelementptr inbounds %"struct.std::__1::basic_string<char, std::__1::char_traits<char>, std::__1::allocator<char> >::__rep", %"struct.std::__1::basic_string<char, std::__1::char_traits<char>, std::__1::allocator<char> >::__rep"* %326, i32 0, i32 0
  %328 = bitcast %union.anon* %327 to %"struct.std::__1::basic_string<char, std::__1::char_traits<char>, std::__1::allocator<char> >::__long"*
  %329 = getelementptr inbounds %"struct.std::__1::basic_string<char, std::__1::char_traits<char>, std::__1::allocator<char> >::__long", %"struct.std::__1::basic_string<char, std::__1::char_traits<char>, std::__1::allocator<char> >::__long"* %328, i32 0, i32 2
  %330 = load i8*, i8** %329, align 8
  br label %344

; <label>:331:                                    ; preds = %302
  store %"class.std::__1::basic_string"* %305, %"class.std::__1::basic_string"** %176, align 8
  %332 = load %"class.std::__1::basic_string"*, %"class.std::__1::basic_string"** %176, align 8
  %333 = getelementptr inbounds %"class.std::__1::basic_string", %"class.std::__1::basic_string"* %332, i32 0, i32 0
  store %"class.std::__1::__compressed_pair"* %333, %"class.std::__1::__compressed_pair"** %175, align 8
  %334 = load %"class.std::__1::__compressed_pair"*, %"class.std::__1::__compressed_pair"** %175, align 8
  %335 = bitcast %"class.std::__1::__compressed_pair"* %334 to %"class.std::__1::__libcpp_compressed_pair_imp"*
  store %"class.std::__1::__libcpp_compressed_pair_imp"* %335, %"class.std::__1::__libcpp_compressed_pair_imp"** %174, align 8
  %336 = load %"class.std::__1::__libcpp_compressed_pair_imp"*, %"class.std::__1::__libcpp_compressed_pair_imp"** %174, align 8
  %337 = getelementptr inbounds %"class.std::__1::__libcpp_compressed_pair_imp", %"class.std::__1::__libcpp_compressed_pair_imp"* %336, i32 0, i32 0
  %338 = getelementptr inbounds %"struct.std::__1::basic_string<char, std::__1::char_traits<char>, std::__1::allocator<char> >::__rep", %"struct.std::__1::basic_string<char, std::__1::char_traits<char>, std::__1::allocator<char> >::__rep"* %337, i32 0, i32 0
  %339 = bitcast %union.anon* %338 to %"struct.std::__1::basic_string<char, std::__1::char_traits<char>, std::__1::allocator<char> >::__short"*
  %340 = getelementptr inbounds %"struct.std::__1::basic_string<char, std::__1::char_traits<char>, std::__1::allocator<char> >::__short", %"struct.std::__1::basic_string<char, std::__1::char_traits<char>, std::__1::allocator<char> >::__short"* %339, i32 0, i32 1
  %341 = getelementptr inbounds [23 x i8], [23 x i8]* %340, i64 0, i64 0
  store i8* %341, i8** %173, align 8
  %342 = load i8*, i8** %173, align 8
  store i8* %342, i8** %172, align 8
  %343 = load i8*, i8** %172, align 8
  br label %344

; <label>:344:                                    ; preds = %320, %331
  %345 = phi i8* [ %330, %320 ], [ %343, %331 ]
  %346 = load i64, i64* %182, align 8
  %347 = getelementptr inbounds i8, i8* %345, i64 %346
  br label %348

; <label>:348:                                    ; preds = %344
  %349 = load i8, i8* %347, align 1
  store %"class.std::__1::basic_string"* %212, %"class.std::__1::basic_string"** %166, align 8
  store i64 1, i64* %167, align 8
  store i8 %349, i8* %168, align 1
  %350 = load %"class.std::__1::basic_string"*, %"class.std::__1::basic_string"** %166, align 8
  %351 = load i64, i64* %167, align 8
  %352 = load i8, i8* %168, align 1
  store %"class.std::__1::basic_string"* %350, %"class.std::__1::basic_string"** %163, align 8
  store i64 %351, i64* %164, align 8
  store i8 %352, i8* %165, align 1
  %353 = load %"class.std::__1::basic_string"*, %"class.std::__1::basic_string"** %163, align 8
  %354 = bitcast %"class.std::__1::basic_string"* %353 to %"class.std::__1::__basic_string_common"*
  %355 = getelementptr inbounds %"class.std::__1::basic_string", %"class.std::__1::basic_string"* %353, i32 0, i32 0
  store %"class.std::__1::__compressed_pair"* %355, %"class.std::__1::__compressed_pair"** %162, align 8
  %356 = load %"class.std::__1::__compressed_pair"*, %"class.std::__1::__compressed_pair"** %162, align 8
  store %"class.std::__1::__compressed_pair"* %356, %"class.std::__1::__compressed_pair"** %161, align 8
  %357 = load %"class.std::__1::__compressed_pair"*, %"class.std::__1::__compressed_pair"** %161, align 8
  %358 = bitcast %"class.std::__1::__compressed_pair"* %357 to %"class.std::__1::__libcpp_compressed_pair_imp"*
  store %"class.std::__1::__libcpp_compressed_pair_imp"* %358, %"class.std::__1::__libcpp_compressed_pair_imp"** %160, align 8
  %359 = load %"class.std::__1::__libcpp_compressed_pair_imp"*, %"class.std::__1::__libcpp_compressed_pair_imp"** %160, align 8
  %360 = bitcast %"class.std::__1::__libcpp_compressed_pair_imp"* %359 to %"class.std::__1::allocator"*
  store %"class.std::__1::allocator"* %360, %"class.std::__1::allocator"** %159, align 8
  %361 = load %"class.std::__1::allocator"*, %"class.std::__1::allocator"** %159, align 8
  %362 = getelementptr inbounds %"class.std::__1::__libcpp_compressed_pair_imp", %"class.std::__1::__libcpp_compressed_pair_imp"* %359, i32 0, i32 0
  %363 = bitcast %"struct.std::__1::basic_string<char, std::__1::char_traits<char>, std::__1::allocator<char> >::__rep"* %362 to i8*
  call void @llvm.memset.p0i8.i64(i8* %363, i8 0, i64 24, i32 8, i1 false) #12
  %364 = load i64, i64* %164, align 8
  %365 = load i8, i8* %165, align 1
  invoke void @_ZNSt3__112basic_stringIcNS_11char_traitsIcEENS_9allocatorIcEEE6__initEmc(%"class.std::__1::basic_string"* %353, i64 %364, i8 signext %365)
          to label %366 unwind label %470

; <label>:366:                                    ; preds = %348
  br label %367

; <label>:367:                                    ; preds = %366
  %368 = invoke i32 @_ZNSt3__14stoiERKNS_12basic_stringIcNS_11char_traitsIcEENS_9allocatorIcEEEEPmi(%"class.std::__1::basic_string"* dereferenceable(24) %212, i64* null, i32 10)
          to label %369 unwind label %474

; <label>:369:                                    ; preds = %367
  invoke void @_ZNSt3__19to_stringEi(%"class.std::__1::basic_string"* sret %211, i32 %368)
          to label %370 unwind label %474

; <label>:370:                                    ; preds = %369
  store %"class.std::__1::basic_string"* %209, %"class.std::__1::basic_string"** %157, align 8
  store %"class.std::__1::basic_string"* %211, %"class.std::__1::basic_string"** %158, align 8
  %371 = load %"class.std::__1::basic_string"*, %"class.std::__1::basic_string"** %157, align 8
  %372 = load %"class.std::__1::basic_string"*, %"class.std::__1::basic_string"** %158, align 8
  store %"class.std::__1::basic_string"* %371, %"class.std::__1::basic_string"** %155, align 8
  store %"class.std::__1::basic_string"* %372, %"class.std::__1::basic_string"** %156, align 8
  %373 = load %"class.std::__1::basic_string"*, %"class.std::__1::basic_string"** %155, align 8
  %374 = load %"class.std::__1::basic_string"*, %"class.std::__1::basic_string"** %156, align 8
  store %"class.std::__1::basic_string"* %374, %"class.std::__1::basic_string"** %154, align 8
  %375 = load %"class.std::__1::basic_string"*, %"class.std::__1::basic_string"** %154, align 8
  store %"class.std::__1::basic_string"* %375, %"class.std::__1::basic_string"** %153, align 8
  %376 = load %"class.std::__1::basic_string"*, %"class.std::__1::basic_string"** %153, align 8
  store %"class.std::__1::basic_string"* %376, %"class.std::__1::basic_string"** %152, align 8
  %377 = load %"class.std::__1::basic_string"*, %"class.std::__1::basic_string"** %152, align 8
  %378 = getelementptr inbounds %"class.std::__1::basic_string", %"class.std::__1::basic_string"* %377, i32 0, i32 0
  store %"class.std::__1::__compressed_pair"* %378, %"class.std::__1::__compressed_pair"** %151, align 8
  %379 = load %"class.std::__1::__compressed_pair"*, %"class.std::__1::__compressed_pair"** %151, align 8
  %380 = bitcast %"class.std::__1::__compressed_pair"* %379 to %"class.std::__1::__libcpp_compressed_pair_imp"*
  store %"class.std::__1::__libcpp_compressed_pair_imp"* %380, %"class.std::__1::__libcpp_compressed_pair_imp"** %150, align 8
  %381 = load %"class.std::__1::__libcpp_compressed_pair_imp"*, %"class.std::__1::__libcpp_compressed_pair_imp"** %150, align 8
  %382 = getelementptr inbounds %"class.std::__1::__libcpp_compressed_pair_imp", %"class.std::__1::__libcpp_compressed_pair_imp"* %381, i32 0, i32 0
  %383 = getelementptr inbounds %"struct.std::__1::basic_string<char, std::__1::char_traits<char>, std::__1::allocator<char> >::__rep", %"struct.std::__1::basic_string<char, std::__1::char_traits<char>, std::__1::allocator<char> >::__rep"* %382, i32 0, i32 0
  %384 = bitcast %union.anon* %383 to %"struct.std::__1::basic_string<char, std::__1::char_traits<char>, std::__1::allocator<char> >::__short"*
  %385 = getelementptr inbounds %"struct.std::__1::basic_string<char, std::__1::char_traits<char>, std::__1::allocator<char> >::__short", %"struct.std::__1::basic_string<char, std::__1::char_traits<char>, std::__1::allocator<char> >::__short"* %384, i32 0, i32 0
  %386 = bitcast %union.anon.0* %385 to i8*
  %387 = load i8, i8* %386, align 8
  %388 = zext i8 %387 to i32
  %389 = and i32 %388, 1
  %390 = icmp ne i32 %389, 0
  br i1 %390, label %391, label %402

; <label>:391:                                    ; preds = %370
  store %"class.std::__1::basic_string"* %376, %"class.std::__1::basic_string"** %144, align 8
  %392 = load %"class.std::__1::basic_string"*, %"class.std::__1::basic_string"** %144, align 8
  %393 = getelementptr inbounds %"class.std::__1::basic_string", %"class.std::__1::basic_string"* %392, i32 0, i32 0
  store %"class.std::__1::__compressed_pair"* %393, %"class.std::__1::__compressed_pair"** %143, align 8
  %394 = load %"class.std::__1::__compressed_pair"*, %"class.std::__1::__compressed_pair"** %143, align 8
  %395 = bitcast %"class.std::__1::__compressed_pair"* %394 to %"class.std::__1::__libcpp_compressed_pair_imp"*
  store %"class.std::__1::__libcpp_compressed_pair_imp"* %395, %"class.std::__1::__libcpp_compressed_pair_imp"** %142, align 8
  %396 = load %"class.std::__1::__libcpp_compressed_pair_imp"*, %"class.std::__1::__libcpp_compressed_pair_imp"** %142, align 8
  %397 = getelementptr inbounds %"class.std::__1::__libcpp_compressed_pair_imp", %"class.std::__1::__libcpp_compressed_pair_imp"* %396, i32 0, i32 0
  %398 = getelementptr inbounds %"struct.std::__1::basic_string<char, std::__1::char_traits<char>, std::__1::allocator<char> >::__rep", %"struct.std::__1::basic_string<char, std::__1::char_traits<char>, std::__1::allocator<char> >::__rep"* %397, i32 0, i32 0
  %399 = bitcast %union.anon* %398 to %"struct.std::__1::basic_string<char, std::__1::char_traits<char>, std::__1::allocator<char> >::__long"*
  %400 = getelementptr inbounds %"struct.std::__1::basic_string<char, std::__1::char_traits<char>, std::__1::allocator<char> >::__long", %"struct.std::__1::basic_string<char, std::__1::char_traits<char>, std::__1::allocator<char> >::__long"* %399, i32 0, i32 2
  %401 = load i8*, i8** %400, align 8
  br label %415

; <label>:402:                                    ; preds = %370
  store %"class.std::__1::basic_string"* %376, %"class.std::__1::basic_string"** %149, align 8
  %403 = load %"class.std::__1::basic_string"*, %"class.std::__1::basic_string"** %149, align 8
  %404 = getelementptr inbounds %"class.std::__1::basic_string", %"class.std::__1::basic_string"* %403, i32 0, i32 0
  store %"class.std::__1::__compressed_pair"* %404, %"class.std::__1::__compressed_pair"** %148, align 8
  %405 = load %"class.std::__1::__compressed_pair"*, %"class.std::__1::__compressed_pair"** %148, align 8
  %406 = bitcast %"class.std::__1::__compressed_pair"* %405 to %"class.std::__1::__libcpp_compressed_pair_imp"*
  store %"class.std::__1::__libcpp_compressed_pair_imp"* %406, %"class.std::__1::__libcpp_compressed_pair_imp"** %147, align 8
  %407 = load %"class.std::__1::__libcpp_compressed_pair_imp"*, %"class.std::__1::__libcpp_compressed_pair_imp"** %147, align 8
  %408 = getelementptr inbounds %"class.std::__1::__libcpp_compressed_pair_imp", %"class.std::__1::__libcpp_compressed_pair_imp"* %407, i32 0, i32 0
  %409 = getelementptr inbounds %"struct.std::__1::basic_string<char, std::__1::char_traits<char>, std::__1::allocator<char> >::__rep", %"struct.std::__1::basic_string<char, std::__1::char_traits<char>, std::__1::allocator<char> >::__rep"* %408, i32 0, i32 0
  %410 = bitcast %union.anon* %409 to %"struct.std::__1::basic_string<char, std::__1::char_traits<char>, std::__1::allocator<char> >::__short"*
  %411 = getelementptr inbounds %"struct.std::__1::basic_string<char, std::__1::char_traits<char>, std::__1::allocator<char> >::__short", %"struct.std::__1::basic_string<char, std::__1::char_traits<char>, std::__1::allocator<char> >::__short"* %410, i32 0, i32 1
  %412 = getelementptr inbounds [23 x i8], [23 x i8]* %411, i64 0, i64 0
  store i8* %412, i8** %146, align 8
  %413 = load i8*, i8** %146, align 8
  store i8* %413, i8** %145, align 8
  %414 = load i8*, i8** %145, align 8
  br label %415

; <label>:415:                                    ; preds = %402, %391
  %416 = phi i8* [ %401, %391 ], [ %414, %402 ]
  store i8* %416, i8** %141, align 8
  %417 = load i8*, i8** %141, align 8
  %418 = load %"class.std::__1::basic_string"*, %"class.std::__1::basic_string"** %156, align 8
  store %"class.std::__1::basic_string"* %418, %"class.std::__1::basic_string"** %140, align 8
  %419 = load %"class.std::__1::basic_string"*, %"class.std::__1::basic_string"** %140, align 8
  store %"class.std::__1::basic_string"* %419, %"class.std::__1::basic_string"** %139, align 8
  %420 = load %"class.std::__1::basic_string"*, %"class.std::__1::basic_string"** %139, align 8
  %421 = getelementptr inbounds %"class.std::__1::basic_string", %"class.std::__1::basic_string"* %420, i32 0, i32 0
  store %"class.std::__1::__compressed_pair"* %421, %"class.std::__1::__compressed_pair"** %138, align 8
  %422 = load %"class.std::__1::__compressed_pair"*, %"class.std::__1::__compressed_pair"** %138, align 8
  %423 = bitcast %"class.std::__1::__compressed_pair"* %422 to %"class.std::__1::__libcpp_compressed_pair_imp"*
  store %"class.std::__1::__libcpp_compressed_pair_imp"* %423, %"class.std::__1::__libcpp_compressed_pair_imp"** %137, align 8
  %424 = load %"class.std::__1::__libcpp_compressed_pair_imp"*, %"class.std::__1::__libcpp_compressed_pair_imp"** %137, align 8
  %425 = getelementptr inbounds %"class.std::__1::__libcpp_compressed_pair_imp", %"class.std::__1::__libcpp_compressed_pair_imp"* %424, i32 0, i32 0
  %426 = getelementptr inbounds %"struct.std::__1::basic_string<char, std::__1::char_traits<char>, std::__1::allocator<char> >::__rep", %"struct.std::__1::basic_string<char, std::__1::char_traits<char>, std::__1::allocator<char> >::__rep"* %425, i32 0, i32 0
  %427 = bitcast %union.anon* %426 to %"struct.std::__1::basic_string<char, std::__1::char_traits<char>, std::__1::allocator<char> >::__short"*
  %428 = getelementptr inbounds %"struct.std::__1::basic_string<char, std::__1::char_traits<char>, std::__1::allocator<char> >::__short", %"struct.std::__1::basic_string<char, std::__1::char_traits<char>, std::__1::allocator<char> >::__short"* %427, i32 0, i32 0
  %429 = bitcast %union.anon.0* %428 to i8*
  %430 = load i8, i8* %429, align 8
  %431 = zext i8 %430 to i32
  %432 = and i32 %431, 1
  %433 = icmp ne i32 %432, 0
  br i1 %433, label %434, label %445

; <label>:434:                                    ; preds = %415
  store %"class.std::__1::basic_string"* %419, %"class.std::__1::basic_string"** %133, align 8
  %435 = load %"class.std::__1::basic_string"*, %"class.std::__1::basic_string"** %133, align 8
  %436 = getelementptr inbounds %"class.std::__1::basic_string", %"class.std::__1::basic_string"* %435, i32 0, i32 0
  store %"class.std::__1::__compressed_pair"* %436, %"class.std::__1::__compressed_pair"** %132, align 8
  %437 = load %"class.std::__1::__compressed_pair"*, %"class.std::__1::__compressed_pair"** %132, align 8
  %438 = bitcast %"class.std::__1::__compressed_pair"* %437 to %"class.std::__1::__libcpp_compressed_pair_imp"*
  store %"class.std::__1::__libcpp_compressed_pair_imp"* %438, %"class.std::__1::__libcpp_compressed_pair_imp"** %131, align 8
  %439 = load %"class.std::__1::__libcpp_compressed_pair_imp"*, %"class.std::__1::__libcpp_compressed_pair_imp"** %131, align 8
  %440 = getelementptr inbounds %"class.std::__1::__libcpp_compressed_pair_imp", %"class.std::__1::__libcpp_compressed_pair_imp"* %439, i32 0, i32 0
  %441 = getelementptr inbounds %"struct.std::__1::basic_string<char, std::__1::char_traits<char>, std::__1::allocator<char> >::__rep", %"struct.std::__1::basic_string<char, std::__1::char_traits<char>, std::__1::allocator<char> >::__rep"* %440, i32 0, i32 0
  %442 = bitcast %union.anon* %441 to %"struct.std::__1::basic_string<char, std::__1::char_traits<char>, std::__1::allocator<char> >::__long"*
  %443 = getelementptr inbounds %"struct.std::__1::basic_string<char, std::__1::char_traits<char>, std::__1::allocator<char> >::__long", %"struct.std::__1::basic_string<char, std::__1::char_traits<char>, std::__1::allocator<char> >::__long"* %442, i32 0, i32 1
  %444 = load i64, i64* %443, align 8
  br label %460

; <label>:445:                                    ; preds = %415
  store %"class.std::__1::basic_string"* %419, %"class.std::__1::basic_string"** %136, align 8
  %446 = load %"class.std::__1::basic_string"*, %"class.std::__1::basic_string"** %136, align 8
  %447 = getelementptr inbounds %"class.std::__1::basic_string", %"class.std::__1::basic_string"* %446, i32 0, i32 0
  store %"class.std::__1::__compressed_pair"* %447, %"class.std::__1::__compressed_pair"** %135, align 8
  %448 = load %"class.std::__1::__compressed_pair"*, %"class.std::__1::__compressed_pair"** %135, align 8
  %449 = bitcast %"class.std::__1::__compressed_pair"* %448 to %"class.std::__1::__libcpp_compressed_pair_imp"*
  store %"class.std::__1::__libcpp_compressed_pair_imp"* %449, %"class.std::__1::__libcpp_compressed_pair_imp"** %134, align 8
  %450 = load %"class.std::__1::__libcpp_compressed_pair_imp"*, %"class.std::__1::__libcpp_compressed_pair_imp"** %134, align 8
  %451 = getelementptr inbounds %"class.std::__1::__libcpp_compressed_pair_imp", %"class.std::__1::__libcpp_compressed_pair_imp"* %450, i32 0, i32 0
  %452 = getelementptr inbounds %"struct.std::__1::basic_string<char, std::__1::char_traits<char>, std::__1::allocator<char> >::__rep", %"struct.std::__1::basic_string<char, std::__1::char_traits<char>, std::__1::allocator<char> >::__rep"* %451, i32 0, i32 0
  %453 = bitcast %union.anon* %452 to %"struct.std::__1::basic_string<char, std::__1::char_traits<char>, std::__1::allocator<char> >::__short"*
  %454 = getelementptr inbounds %"struct.std::__1::basic_string<char, std::__1::char_traits<char>, std::__1::allocator<char> >::__short", %"struct.std::__1::basic_string<char, std::__1::char_traits<char>, std::__1::allocator<char> >::__short"* %453, i32 0, i32 0
  %455 = bitcast %union.anon.0* %454 to i8*
  %456 = load i8, i8* %455, align 8
  %457 = zext i8 %456 to i32
  %458 = ashr i32 %457, 1
  %459 = sext i32 %458 to i64
  br label %460

; <label>:460:                                    ; preds = %445, %434
  %461 = phi i64 [ %444, %434 ], [ %459, %445 ]
  %462 = invoke dereferenceable(24) %"class.std::__1::basic_string"* @_ZNSt3__112basic_stringIcNS_11char_traitsIcEENS_9allocatorIcEEE6appendEPKcm(%"class.std::__1::basic_string"* %373, i8* %417, i64 %461)
          to label %463 unwind label %478

; <label>:463:                                    ; preds = %460
  br label %464

; <label>:464:                                    ; preds = %463
  invoke void @_ZNSt3__112basic_stringIcNS_11char_traitsIcEENS_9allocatorIcEEED1Ev(%"class.std::__1::basic_string"* %211)
          to label %465 unwind label %474

; <label>:465:                                    ; preds = %464
  invoke void @_ZNSt3__112basic_stringIcNS_11char_traitsIcEENS_9allocatorIcEEED1Ev(%"class.std::__1::basic_string"* %212)
          to label %466 unwind label %470

; <label>:466:                                    ; preds = %465
  br label %467

; <label>:467:                                    ; preds = %466
  %468 = load i64, i64* %210, align 8
  %469 = add nsw i64 %468, 1
  store i64 %469, i64* %210, align 8
  br label %298

; <label>:470:                                    ; preds = %500, %487, %348, %947, %507, %505, %498, %497, %494, %492, %485, %465
  %471 = landingpad { i8*, i32 }
          cleanup
  %472 = extractvalue { i8*, i32 } %471, 0
  store i8* %472, i8** %213, align 8
  %473 = extractvalue { i8*, i32 } %471, 1
  store i32 %473, i32* %214, align 4
  br label %952

; <label>:474:                                    ; preds = %464, %369, %367
  %475 = landingpad { i8*, i32 }
          cleanup
  %476 = extractvalue { i8*, i32 } %475, 0
  store i8* %476, i8** %213, align 8
  %477 = extractvalue { i8*, i32 } %475, 1
  store i32 %477, i32* %214, align 4
  br label %483

; <label>:478:                                    ; preds = %460
  %479 = landingpad { i8*, i32 }
          cleanup
  %480 = extractvalue { i8*, i32 } %479, 0
  store i8* %480, i8** %213, align 8
  %481 = extractvalue { i8*, i32 } %479, 1
  store i32 %481, i32* %214, align 4
  invoke void @_ZNSt3__112basic_stringIcNS_11char_traitsIcEENS_9allocatorIcEEED1Ev(%"class.std::__1::basic_string"* %211)
          to label %482 unwind label %959

; <label>:482:                                    ; preds = %478
  br label %483

; <label>:483:                                    ; preds = %482, %474
  invoke void @_ZNSt3__112basic_stringIcNS_11char_traitsIcEENS_9allocatorIcEEED1Ev(%"class.std::__1::basic_string"* %212)
          to label %484 unwind label %959

; <label>:484:                                    ; preds = %483
  br label %952

; <label>:485:                                    ; preds = %298
  %486 = invoke dereferenceable(160) %"class.std::__1::basic_ostream"* @_ZNSt3__1lsIcNS_11char_traitsIcEENS_9allocatorIcEEEERNS_13basic_ostreamIT_T0_EES9_RKNS_12basic_stringIS6_S7_T1_EE(%"class.std::__1::basic_ostream"* dereferenceable(160) @_ZNSt3__14coutE, %"class.std::__1::basic_string"* dereferenceable(24) %209)
          to label %487 unwind label %470

; <label>:487:                                    ; preds = %485
  store %"class.std::__1::basic_ostream"* %486, %"class.std::__1::basic_ostream"** %129, align 8
  store %"class.std::__1::basic_ostream"* (%"class.std::__1::basic_ostream"*)* @_ZNSt3__14endlIcNS_11char_traitsIcEEEERNS_13basic_ostreamIT_T0_EES7_, %"class.std::__1::basic_ostream"* (%"class.std::__1::basic_ostream"*)** %130, align 8
  %488 = load %"class.std::__1::basic_ostream"*, %"class.std::__1::basic_ostream"** %129, align 8
  %489 = load %"class.std::__1::basic_ostream"* (%"class.std::__1::basic_ostream"*)*, %"class.std::__1::basic_ostream"* (%"class.std::__1::basic_ostream"*)** %130, align 8
  %490 = invoke dereferenceable(160) %"class.std::__1::basic_ostream"* %489(%"class.std::__1::basic_ostream"* dereferenceable(160) %488)
          to label %491 unwind label %470

; <label>:491:                                    ; preds = %487
  br label %492

; <label>:492:                                    ; preds = %491
  %493 = invoke i64 @_ZNSt3__14stolERKNS_12basic_stringIcNS_11char_traitsIcEENS_9allocatorIcEEEEPmi(%"class.std::__1::basic_string"* dereferenceable(24) %209, i64* null, i32 10)
          to label %494 unwind label %470

; <label>:494:                                    ; preds = %492
  invoke void @_Z10inverseOfFl(%"class.std::__1::basic_string"* sret %215, i64 %493)
          to label %495 unwind label %470

; <label>:495:                                    ; preds = %494
  %496 = invoke dereferenceable(24) %"class.std::__1::basic_string"* @_ZNSt3__112basic_stringIcNS_11char_traitsIcEENS_9allocatorIcEEEaSERKS5_(%"class.std::__1::basic_string"* %209, %"class.std::__1::basic_string"* dereferenceable(24) %215)
          to label %497 unwind label %735

; <label>:497:                                    ; preds = %495
  invoke void @_ZNSt3__112basic_stringIcNS_11char_traitsIcEENS_9allocatorIcEEED1Ev(%"class.std::__1::basic_string"* %215)
          to label %498 unwind label %470

; <label>:498:                                    ; preds = %497
  %499 = invoke dereferenceable(160) %"class.std::__1::basic_ostream"* @_ZNSt3__1lsIcNS_11char_traitsIcEENS_9allocatorIcEEEERNS_13basic_ostreamIT_T0_EES9_RKNS_12basic_stringIS6_S7_T1_EE(%"class.std::__1::basic_ostream"* dereferenceable(160) @_ZNSt3__14coutE, %"class.std::__1::basic_string"* dereferenceable(24) %209)
          to label %500 unwind label %470

; <label>:500:                                    ; preds = %498
  store %"class.std::__1::basic_ostream"* %499, %"class.std::__1::basic_ostream"** %127, align 8
  store %"class.std::__1::basic_ostream"* (%"class.std::__1::basic_ostream"*)* @_ZNSt3__14endlIcNS_11char_traitsIcEEEERNS_13basic_ostreamIT_T0_EES7_, %"class.std::__1::basic_ostream"* (%"class.std::__1::basic_ostream"*)** %128, align 8
  %501 = load %"class.std::__1::basic_ostream"*, %"class.std::__1::basic_ostream"** %127, align 8
  %502 = load %"class.std::__1::basic_ostream"* (%"class.std::__1::basic_ostream"*)*, %"class.std::__1::basic_ostream"* (%"class.std::__1::basic_ostream"*)** %128, align 8
  %503 = invoke dereferenceable(160) %"class.std::__1::basic_ostream"* %502(%"class.std::__1::basic_ostream"* dereferenceable(160) %501)
          to label %504 unwind label %470

; <label>:504:                                    ; preds = %500
  br label %505

; <label>:505:                                    ; preds = %504
  invoke void @_ZNSt3__112basic_stringIcNS_11char_traitsIcEENS_9allocatorIcEEEC1ERKS5_(%"class.std::__1::basic_string"* %217, %"class.std::__1::basic_string"* dereferenceable(24) %1)
          to label %506 unwind label %470

; <label>:506:                                    ; preds = %505
  invoke void @_Z12returnDiskIDNSt3__112basic_stringIcNS_11char_traitsIcEENS_9allocatorIcEEEE(%"class.std::__1::basic_string"* sret %216, %"class.std::__1::basic_string"* %217)
          to label %507 unwind label %740

; <label>:507:                                    ; preds = %506
  invoke void @_ZNSt3__112basic_stringIcNS_11char_traitsIcEENS_9allocatorIcEEED1Ev(%"class.std::__1::basic_string"* %217)
          to label %508 unwind label %470

; <label>:508:                                    ; preds = %507
  store %"class.std::__1::basic_string"* %216, %"class.std::__1::basic_string"** %120, align 8
  store %"class.std::__1::basic_string"* %209, %"class.std::__1::basic_string"** %121, align 8
  %509 = load %"class.std::__1::basic_string"*, %"class.std::__1::basic_string"** %120, align 8
  store %"class.std::__1::basic_string"* %509, %"class.std::__1::basic_string"** %118, align 8
  %510 = load %"class.std::__1::basic_string"*, %"class.std::__1::basic_string"** %118, align 8
  store %"class.std::__1::basic_string"* %510, %"class.std::__1::basic_string"** %117, align 8
  %511 = load %"class.std::__1::basic_string"*, %"class.std::__1::basic_string"** %117, align 8
  %512 = getelementptr inbounds %"class.std::__1::basic_string", %"class.std::__1::basic_string"* %511, i32 0, i32 0
  store %"class.std::__1::__compressed_pair"* %512, %"class.std::__1::__compressed_pair"** %116, align 8
  %513 = load %"class.std::__1::__compressed_pair"*, %"class.std::__1::__compressed_pair"** %116, align 8
  %514 = bitcast %"class.std::__1::__compressed_pair"* %513 to %"class.std::__1::__libcpp_compressed_pair_imp"*
  store %"class.std::__1::__libcpp_compressed_pair_imp"* %514, %"class.std::__1::__libcpp_compressed_pair_imp"** %115, align 8
  %515 = load %"class.std::__1::__libcpp_compressed_pair_imp"*, %"class.std::__1::__libcpp_compressed_pair_imp"** %115, align 8
  %516 = getelementptr inbounds %"class.std::__1::__libcpp_compressed_pair_imp", %"class.std::__1::__libcpp_compressed_pair_imp"* %515, i32 0, i32 0
  %517 = getelementptr inbounds %"struct.std::__1::basic_string<char, std::__1::char_traits<char>, std::__1::allocator<char> >::__rep", %"struct.std::__1::basic_string<char, std::__1::char_traits<char>, std::__1::allocator<char> >::__rep"* %516, i32 0, i32 0
  %518 = bitcast %union.anon* %517 to %"struct.std::__1::basic_string<char, std::__1::char_traits<char>, std::__1::allocator<char> >::__short"*
  %519 = getelementptr inbounds %"struct.std::__1::basic_string<char, std::__1::char_traits<char>, std::__1::allocator<char> >::__short", %"struct.std::__1::basic_string<char, std::__1::char_traits<char>, std::__1::allocator<char> >::__short"* %518, i32 0, i32 0
  %520 = bitcast %union.anon.0* %519 to i8*
  %521 = load i8, i8* %520, align 8
  %522 = zext i8 %521 to i32
  %523 = and i32 %522, 1
  %524 = icmp ne i32 %523, 0
  br i1 %524, label %525, label %536

; <label>:525:                                    ; preds = %508
  store %"class.std::__1::basic_string"* %510, %"class.std::__1::basic_string"** %111, align 8
  %526 = load %"class.std::__1::basic_string"*, %"class.std::__1::basic_string"** %111, align 8
  %527 = getelementptr inbounds %"class.std::__1::basic_string", %"class.std::__1::basic_string"* %526, i32 0, i32 0
  store %"class.std::__1::__compressed_pair"* %527, %"class.std::__1::__compressed_pair"** %110, align 8
  %528 = load %"class.std::__1::__compressed_pair"*, %"class.std::__1::__compressed_pair"** %110, align 8
  %529 = bitcast %"class.std::__1::__compressed_pair"* %528 to %"class.std::__1::__libcpp_compressed_pair_imp"*
  store %"class.std::__1::__libcpp_compressed_pair_imp"* %529, %"class.std::__1::__libcpp_compressed_pair_imp"** %109, align 8
  %530 = load %"class.std::__1::__libcpp_compressed_pair_imp"*, %"class.std::__1::__libcpp_compressed_pair_imp"** %109, align 8
  %531 = getelementptr inbounds %"class.std::__1::__libcpp_compressed_pair_imp", %"class.std::__1::__libcpp_compressed_pair_imp"* %530, i32 0, i32 0
  %532 = getelementptr inbounds %"struct.std::__1::basic_string<char, std::__1::char_traits<char>, std::__1::allocator<char> >::__rep", %"struct.std::__1::basic_string<char, std::__1::char_traits<char>, std::__1::allocator<char> >::__rep"* %531, i32 0, i32 0
  %533 = bitcast %union.anon* %532 to %"struct.std::__1::basic_string<char, std::__1::char_traits<char>, std::__1::allocator<char> >::__long"*
  %534 = getelementptr inbounds %"struct.std::__1::basic_string<char, std::__1::char_traits<char>, std::__1::allocator<char> >::__long", %"struct.std::__1::basic_string<char, std::__1::char_traits<char>, std::__1::allocator<char> >::__long"* %533, i32 0, i32 1
  %535 = load i64, i64* %534, align 8
  br label %551

; <label>:536:                                    ; preds = %508
  store %"class.std::__1::basic_string"* %510, %"class.std::__1::basic_string"** %114, align 8
  %537 = load %"class.std::__1::basic_string"*, %"class.std::__1::basic_string"** %114, align 8
  %538 = getelementptr inbounds %"class.std::__1::basic_string", %"class.std::__1::basic_string"* %537, i32 0, i32 0
  store %"class.std::__1::__compressed_pair"* %538, %"class.std::__1::__compressed_pair"** %113, align 8
  %539 = load %"class.std::__1::__compressed_pair"*, %"class.std::__1::__compressed_pair"** %113, align 8
  %540 = bitcast %"class.std::__1::__compressed_pair"* %539 to %"class.std::__1::__libcpp_compressed_pair_imp"*
  store %"class.std::__1::__libcpp_compressed_pair_imp"* %540, %"class.std::__1::__libcpp_compressed_pair_imp"** %112, align 8
  %541 = load %"class.std::__1::__libcpp_compressed_pair_imp"*, %"class.std::__1::__libcpp_compressed_pair_imp"** %112, align 8
  %542 = getelementptr inbounds %"class.std::__1::__libcpp_compressed_pair_imp", %"class.std::__1::__libcpp_compressed_pair_imp"* %541, i32 0, i32 0
  %543 = getelementptr inbounds %"struct.std::__1::basic_string<char, std::__1::char_traits<char>, std::__1::allocator<char> >::__rep", %"struct.std::__1::basic_string<char, std::__1::char_traits<char>, std::__1::allocator<char> >::__rep"* %542, i32 0, i32 0
  %544 = bitcast %union.anon* %543 to %"struct.std::__1::basic_string<char, std::__1::char_traits<char>, std::__1::allocator<char> >::__short"*
  %545 = getelementptr inbounds %"struct.std::__1::basic_string<char, std::__1::char_traits<char>, std::__1::allocator<char> >::__short", %"struct.std::__1::basic_string<char, std::__1::char_traits<char>, std::__1::allocator<char> >::__short"* %544, i32 0, i32 0
  %546 = bitcast %union.anon.0* %545 to i8*
  %547 = load i8, i8* %546, align 8
  %548 = zext i8 %547 to i32
  %549 = ashr i32 %548, 1
  %550 = sext i32 %549 to i64
  br label %551

; <label>:551:                                    ; preds = %536, %525
  %552 = phi i64 [ %535, %525 ], [ %550, %536 ]
  store i64 %552, i64* %122, align 8
  %553 = load %"class.std::__1::basic_string"*, %"class.std::__1::basic_string"** %121, align 8
  store %"class.std::__1::basic_string"* %553, %"class.std::__1::basic_string"** %108, align 8
  %554 = load %"class.std::__1::basic_string"*, %"class.std::__1::basic_string"** %108, align 8
  store %"class.std::__1::basic_string"* %554, %"class.std::__1::basic_string"** %107, align 8
  %555 = load %"class.std::__1::basic_string"*, %"class.std::__1::basic_string"** %107, align 8
  %556 = getelementptr inbounds %"class.std::__1::basic_string", %"class.std::__1::basic_string"* %555, i32 0, i32 0
  store %"class.std::__1::__compressed_pair"* %556, %"class.std::__1::__compressed_pair"** %106, align 8
  %557 = load %"class.std::__1::__compressed_pair"*, %"class.std::__1::__compressed_pair"** %106, align 8
  %558 = bitcast %"class.std::__1::__compressed_pair"* %557 to %"class.std::__1::__libcpp_compressed_pair_imp"*
  store %"class.std::__1::__libcpp_compressed_pair_imp"* %558, %"class.std::__1::__libcpp_compressed_pair_imp"** %105, align 8
  %559 = load %"class.std::__1::__libcpp_compressed_pair_imp"*, %"class.std::__1::__libcpp_compressed_pair_imp"** %105, align 8
  %560 = getelementptr inbounds %"class.std::__1::__libcpp_compressed_pair_imp", %"class.std::__1::__libcpp_compressed_pair_imp"* %559, i32 0, i32 0
  %561 = getelementptr inbounds %"struct.std::__1::basic_string<char, std::__1::char_traits<char>, std::__1::allocator<char> >::__rep", %"struct.std::__1::basic_string<char, std::__1::char_traits<char>, std::__1::allocator<char> >::__rep"* %560, i32 0, i32 0
  %562 = bitcast %union.anon* %561 to %"struct.std::__1::basic_string<char, std::__1::char_traits<char>, std::__1::allocator<char> >::__short"*
  %563 = getelementptr inbounds %"struct.std::__1::basic_string<char, std::__1::char_traits<char>, std::__1::allocator<char> >::__short", %"struct.std::__1::basic_string<char, std::__1::char_traits<char>, std::__1::allocator<char> >::__short"* %562, i32 0, i32 0
  %564 = bitcast %union.anon.0* %563 to i8*
  %565 = load i8, i8* %564, align 8
  %566 = zext i8 %565 to i32
  %567 = and i32 %566, 1
  %568 = icmp ne i32 %567, 0
  br i1 %568, label %569, label %580

; <label>:569:                                    ; preds = %551
  store %"class.std::__1::basic_string"* %554, %"class.std::__1::basic_string"** %101, align 8
  %570 = load %"class.std::__1::basic_string"*, %"class.std::__1::basic_string"** %101, align 8
  %571 = getelementptr inbounds %"class.std::__1::basic_string", %"class.std::__1::basic_string"* %570, i32 0, i32 0
  store %"class.std::__1::__compressed_pair"* %571, %"class.std::__1::__compressed_pair"** %100, align 8
  %572 = load %"class.std::__1::__compressed_pair"*, %"class.std::__1::__compressed_pair"** %100, align 8
  %573 = bitcast %"class.std::__1::__compressed_pair"* %572 to %"class.std::__1::__libcpp_compressed_pair_imp"*
  store %"class.std::__1::__libcpp_compressed_pair_imp"* %573, %"class.std::__1::__libcpp_compressed_pair_imp"** %99, align 8
  %574 = load %"class.std::__1::__libcpp_compressed_pair_imp"*, %"class.std::__1::__libcpp_compressed_pair_imp"** %99, align 8
  %575 = getelementptr inbounds %"class.std::__1::__libcpp_compressed_pair_imp", %"class.std::__1::__libcpp_compressed_pair_imp"* %574, i32 0, i32 0
  %576 = getelementptr inbounds %"struct.std::__1::basic_string<char, std::__1::char_traits<char>, std::__1::allocator<char> >::__rep", %"struct.std::__1::basic_string<char, std::__1::char_traits<char>, std::__1::allocator<char> >::__rep"* %575, i32 0, i32 0
  %577 = bitcast %union.anon* %576 to %"struct.std::__1::basic_string<char, std::__1::char_traits<char>, std::__1::allocator<char> >::__long"*
  %578 = getelementptr inbounds %"struct.std::__1::basic_string<char, std::__1::char_traits<char>, std::__1::allocator<char> >::__long", %"struct.std::__1::basic_string<char, std::__1::char_traits<char>, std::__1::allocator<char> >::__long"* %577, i32 0, i32 1
  %579 = load i64, i64* %578, align 8
  br label %595

; <label>:580:                                    ; preds = %551
  store %"class.std::__1::basic_string"* %554, %"class.std::__1::basic_string"** %104, align 8
  %581 = load %"class.std::__1::basic_string"*, %"class.std::__1::basic_string"** %104, align 8
  %582 = getelementptr inbounds %"class.std::__1::basic_string", %"class.std::__1::basic_string"* %581, i32 0, i32 0
  store %"class.std::__1::__compressed_pair"* %582, %"class.std::__1::__compressed_pair"** %103, align 8
  %583 = load %"class.std::__1::__compressed_pair"*, %"class.std::__1::__compressed_pair"** %103, align 8
  %584 = bitcast %"class.std::__1::__compressed_pair"* %583 to %"class.std::__1::__libcpp_compressed_pair_imp"*
  store %"class.std::__1::__libcpp_compressed_pair_imp"* %584, %"class.std::__1::__libcpp_compressed_pair_imp"** %102, align 8
  %585 = load %"class.std::__1::__libcpp_compressed_pair_imp"*, %"class.std::__1::__libcpp_compressed_pair_imp"** %102, align 8
  %586 = getelementptr inbounds %"class.std::__1::__libcpp_compressed_pair_imp", %"class.std::__1::__libcpp_compressed_pair_imp"* %585, i32 0, i32 0
  %587 = getelementptr inbounds %"struct.std::__1::basic_string<char, std::__1::char_traits<char>, std::__1::allocator<char> >::__rep", %"struct.std::__1::basic_string<char, std::__1::char_traits<char>, std::__1::allocator<char> >::__rep"* %586, i32 0, i32 0
  %588 = bitcast %union.anon* %587 to %"struct.std::__1::basic_string<char, std::__1::char_traits<char>, std::__1::allocator<char> >::__short"*
  %589 = getelementptr inbounds %"struct.std::__1::basic_string<char, std::__1::char_traits<char>, std::__1::allocator<char> >::__short", %"struct.std::__1::basic_string<char, std::__1::char_traits<char>, std::__1::allocator<char> >::__short"* %588, i32 0, i32 0
  %590 = bitcast %union.anon.0* %589 to i8*
  %591 = load i8, i8* %590, align 8
  %592 = zext i8 %591 to i32
  %593 = ashr i32 %592, 1
  %594 = sext i32 %593 to i64
  br label %595

; <label>:595:                                    ; preds = %580, %569
  %596 = phi i64 [ %579, %569 ], [ %594, %580 ]
  store i64 %596, i64* %123, align 8
  store %"class.std::__1::basic_string"* %509, %"class.std::__1::basic_string"** %71, align 8
  %597 = load %"class.std::__1::basic_string"*, %"class.std::__1::basic_string"** %71, align 8
  store %"class.std::__1::basic_string"* %597, %"class.std::__1::basic_string"** %70, align 8
  %598 = load %"class.std::__1::basic_string"*, %"class.std::__1::basic_string"** %70, align 8
  store %"class.std::__1::basic_string"* %598, %"class.std::__1::basic_string"** %69, align 8
  %599 = load %"class.std::__1::basic_string"*, %"class.std::__1::basic_string"** %69, align 8
  %600 = getelementptr inbounds %"class.std::__1::basic_string", %"class.std::__1::basic_string"* %599, i32 0, i32 0
  store %"class.std::__1::__compressed_pair"* %600, %"class.std::__1::__compressed_pair"** %68, align 8
  %601 = load %"class.std::__1::__compressed_pair"*, %"class.std::__1::__compressed_pair"** %68, align 8
  %602 = bitcast %"class.std::__1::__compressed_pair"* %601 to %"class.std::__1::__libcpp_compressed_pair_imp"*
  store %"class.std::__1::__libcpp_compressed_pair_imp"* %602, %"class.std::__1::__libcpp_compressed_pair_imp"** %67, align 8
  %603 = load %"class.std::__1::__libcpp_compressed_pair_imp"*, %"class.std::__1::__libcpp_compressed_pair_imp"** %67, align 8
  %604 = getelementptr inbounds %"class.std::__1::__libcpp_compressed_pair_imp", %"class.std::__1::__libcpp_compressed_pair_imp"* %603, i32 0, i32 0
  %605 = getelementptr inbounds %"struct.std::__1::basic_string<char, std::__1::char_traits<char>, std::__1::allocator<char> >::__rep", %"struct.std::__1::basic_string<char, std::__1::char_traits<char>, std::__1::allocator<char> >::__rep"* %604, i32 0, i32 0
  %606 = bitcast %union.anon* %605 to %"struct.std::__1::basic_string<char, std::__1::char_traits<char>, std::__1::allocator<char> >::__short"*
  %607 = getelementptr inbounds %"struct.std::__1::basic_string<char, std::__1::char_traits<char>, std::__1::allocator<char> >::__short", %"struct.std::__1::basic_string<char, std::__1::char_traits<char>, std::__1::allocator<char> >::__short"* %606, i32 0, i32 0
  %608 = bitcast %union.anon.0* %607 to i8*
  %609 = load i8, i8* %608, align 8
  %610 = zext i8 %609 to i32
  %611 = and i32 %610, 1
  %612 = icmp ne i32 %611, 0
  br i1 %612, label %613, label %624

; <label>:613:                                    ; preds = %595
  store %"class.std::__1::basic_string"* %598, %"class.std::__1::basic_string"** %61, align 8
  %614 = load %"class.std::__1::basic_string"*, %"class.std::__1::basic_string"** %61, align 8
  %615 = getelementptr inbounds %"class.std::__1::basic_string", %"class.std::__1::basic_string"* %614, i32 0, i32 0
  store %"class.std::__1::__compressed_pair"* %615, %"class.std::__1::__compressed_pair"** %60, align 8
  %616 = load %"class.std::__1::__compressed_pair"*, %"class.std::__1::__compressed_pair"** %60, align 8
  %617 = bitcast %"class.std::__1::__compressed_pair"* %616 to %"class.std::__1::__libcpp_compressed_pair_imp"*
  store %"class.std::__1::__libcpp_compressed_pair_imp"* %617, %"class.std::__1::__libcpp_compressed_pair_imp"** %59, align 8
  %618 = load %"class.std::__1::__libcpp_compressed_pair_imp"*, %"class.std::__1::__libcpp_compressed_pair_imp"** %59, align 8
  %619 = getelementptr inbounds %"class.std::__1::__libcpp_compressed_pair_imp", %"class.std::__1::__libcpp_compressed_pair_imp"* %618, i32 0, i32 0
  %620 = getelementptr inbounds %"struct.std::__1::basic_string<char, std::__1::char_traits<char>, std::__1::allocator<char> >::__rep", %"struct.std::__1::basic_string<char, std::__1::char_traits<char>, std::__1::allocator<char> >::__rep"* %619, i32 0, i32 0
  %621 = bitcast %union.anon* %620 to %"struct.std::__1::basic_string<char, std::__1::char_traits<char>, std::__1::allocator<char> >::__long"*
  %622 = getelementptr inbounds %"struct.std::__1::basic_string<char, std::__1::char_traits<char>, std::__1::allocator<char> >::__long", %"struct.std::__1::basic_string<char, std::__1::char_traits<char>, std::__1::allocator<char> >::__long"* %621, i32 0, i32 2
  %623 = load i8*, i8** %622, align 8
  br label %637

; <label>:624:                                    ; preds = %595
  store %"class.std::__1::basic_string"* %598, %"class.std::__1::basic_string"** %66, align 8
  %625 = load %"class.std::__1::basic_string"*, %"class.std::__1::basic_string"** %66, align 8
  %626 = getelementptr inbounds %"class.std::__1::basic_string", %"class.std::__1::basic_string"* %625, i32 0, i32 0
  store %"class.std::__1::__compressed_pair"* %626, %"class.std::__1::__compressed_pair"** %65, align 8
  %627 = load %"class.std::__1::__compressed_pair"*, %"class.std::__1::__compressed_pair"** %65, align 8
  %628 = bitcast %"class.std::__1::__compressed_pair"* %627 to %"class.std::__1::__libcpp_compressed_pair_imp"*
  store %"class.std::__1::__libcpp_compressed_pair_imp"* %628, %"class.std::__1::__libcpp_compressed_pair_imp"** %64, align 8
  %629 = load %"class.std::__1::__libcpp_compressed_pair_imp"*, %"class.std::__1::__libcpp_compressed_pair_imp"** %64, align 8
  %630 = getelementptr inbounds %"class.std::__1::__libcpp_compressed_pair_imp", %"class.std::__1::__libcpp_compressed_pair_imp"* %629, i32 0, i32 0
  %631 = getelementptr inbounds %"struct.std::__1::basic_string<char, std::__1::char_traits<char>, std::__1::allocator<char> >::__rep", %"struct.std::__1::basic_string<char, std::__1::char_traits<char>, std::__1::allocator<char> >::__rep"* %630, i32 0, i32 0
  %632 = bitcast %union.anon* %631 to %"struct.std::__1::basic_string<char, std::__1::char_traits<char>, std::__1::allocator<char> >::__short"*
  %633 = getelementptr inbounds %"struct.std::__1::basic_string<char, std::__1::char_traits<char>, std::__1::allocator<char> >::__short", %"struct.std::__1::basic_string<char, std::__1::char_traits<char>, std::__1::allocator<char> >::__short"* %632, i32 0, i32 1
  %634 = getelementptr inbounds [23 x i8], [23 x i8]* %633, i64 0, i64 0
  store i8* %634, i8** %63, align 8
  %635 = load i8*, i8** %63, align 8
  store i8* %635, i8** %62, align 8
  %636 = load i8*, i8** %62, align 8
  br label %637

; <label>:637:                                    ; preds = %624, %613
  %638 = phi i8* [ %623, %613 ], [ %636, %624 ]
  store i8* %638, i8** %58, align 8
  %639 = load i8*, i8** %58, align 8
  %640 = load %"class.std::__1::basic_string"*, %"class.std::__1::basic_string"** %121, align 8
  store %"class.std::__1::basic_string"* %640, %"class.std::__1::basic_string"** %85, align 8
  %641 = load %"class.std::__1::basic_string"*, %"class.std::__1::basic_string"** %85, align 8
  store %"class.std::__1::basic_string"* %641, %"class.std::__1::basic_string"** %84, align 8
  %642 = load %"class.std::__1::basic_string"*, %"class.std::__1::basic_string"** %84, align 8
  store %"class.std::__1::basic_string"* %642, %"class.std::__1::basic_string"** %83, align 8
  %643 = load %"class.std::__1::basic_string"*, %"class.std::__1::basic_string"** %83, align 8
  %644 = getelementptr inbounds %"class.std::__1::basic_string", %"class.std::__1::basic_string"* %643, i32 0, i32 0
  store %"class.std::__1::__compressed_pair"* %644, %"class.std::__1::__compressed_pair"** %82, align 8
  %645 = load %"class.std::__1::__compressed_pair"*, %"class.std::__1::__compressed_pair"** %82, align 8
  %646 = bitcast %"class.std::__1::__compressed_pair"* %645 to %"class.std::__1::__libcpp_compressed_pair_imp"*
  store %"class.std::__1::__libcpp_compressed_pair_imp"* %646, %"class.std::__1::__libcpp_compressed_pair_imp"** %81, align 8
  %647 = load %"class.std::__1::__libcpp_compressed_pair_imp"*, %"class.std::__1::__libcpp_compressed_pair_imp"** %81, align 8
  %648 = getelementptr inbounds %"class.std::__1::__libcpp_compressed_pair_imp", %"class.std::__1::__libcpp_compressed_pair_imp"* %647, i32 0, i32 0
  %649 = getelementptr inbounds %"struct.std::__1::basic_string<char, std::__1::char_traits<char>, std::__1::allocator<char> >::__rep", %"struct.std::__1::basic_string<char, std::__1::char_traits<char>, std::__1::allocator<char> >::__rep"* %648, i32 0, i32 0
  %650 = bitcast %union.anon* %649 to %"struct.std::__1::basic_string<char, std::__1::char_traits<char>, std::__1::allocator<char> >::__short"*
  %651 = getelementptr inbounds %"struct.std::__1::basic_string<char, std::__1::char_traits<char>, std::__1::allocator<char> >::__short", %"struct.std::__1::basic_string<char, std::__1::char_traits<char>, std::__1::allocator<char> >::__short"* %650, i32 0, i32 0
  %652 = bitcast %union.anon.0* %651 to i8*
  %653 = load i8, i8* %652, align 8
  %654 = zext i8 %653 to i32
  %655 = and i32 %654, 1
  %656 = icmp ne i32 %655, 0
  br i1 %656, label %657, label %668

; <label>:657:                                    ; preds = %637
  store %"class.std::__1::basic_string"* %642, %"class.std::__1::basic_string"** %75, align 8
  %658 = load %"class.std::__1::basic_string"*, %"class.std::__1::basic_string"** %75, align 8
  %659 = getelementptr inbounds %"class.std::__1::basic_string", %"class.std::__1::basic_string"* %658, i32 0, i32 0
  store %"class.std::__1::__compressed_pair"* %659, %"class.std::__1::__compressed_pair"** %74, align 8
  %660 = load %"class.std::__1::__compressed_pair"*, %"class.std::__1::__compressed_pair"** %74, align 8
  %661 = bitcast %"class.std::__1::__compressed_pair"* %660 to %"class.std::__1::__libcpp_compressed_pair_imp"*
  store %"class.std::__1::__libcpp_compressed_pair_imp"* %661, %"class.std::__1::__libcpp_compressed_pair_imp"** %73, align 8
  %662 = load %"class.std::__1::__libcpp_compressed_pair_imp"*, %"class.std::__1::__libcpp_compressed_pair_imp"** %73, align 8
  %663 = getelementptr inbounds %"class.std::__1::__libcpp_compressed_pair_imp", %"class.std::__1::__libcpp_compressed_pair_imp"* %662, i32 0, i32 0
  %664 = getelementptr inbounds %"struct.std::__1::basic_string<char, std::__1::char_traits<char>, std::__1::allocator<char> >::__rep", %"struct.std::__1::basic_string<char, std::__1::char_traits<char>, std::__1::allocator<char> >::__rep"* %663, i32 0, i32 0
  %665 = bitcast %union.anon* %664 to %"struct.std::__1::basic_string<char, std::__1::char_traits<char>, std::__1::allocator<char> >::__long"*
  %666 = getelementptr inbounds %"struct.std::__1::basic_string<char, std::__1::char_traits<char>, std::__1::allocator<char> >::__long", %"struct.std::__1::basic_string<char, std::__1::char_traits<char>, std::__1::allocator<char> >::__long"* %665, i32 0, i32 2
  %667 = load i8*, i8** %666, align 8
  br label %681

; <label>:668:                                    ; preds = %637
  store %"class.std::__1::basic_string"* %642, %"class.std::__1::basic_string"** %80, align 8
  %669 = load %"class.std::__1::basic_string"*, %"class.std::__1::basic_string"** %80, align 8
  %670 = getelementptr inbounds %"class.std::__1::basic_string", %"class.std::__1::basic_string"* %669, i32 0, i32 0
  store %"class.std::__1::__compressed_pair"* %670, %"class.std::__1::__compressed_pair"** %79, align 8
  %671 = load %"class.std::__1::__compressed_pair"*, %"class.std::__1::__compressed_pair"** %79, align 8
  %672 = bitcast %"class.std::__1::__compressed_pair"* %671 to %"class.std::__1::__libcpp_compressed_pair_imp"*
  store %"class.std::__1::__libcpp_compressed_pair_imp"* %672, %"class.std::__1::__libcpp_compressed_pair_imp"** %78, align 8
  %673 = load %"class.std::__1::__libcpp_compressed_pair_imp"*, %"class.std::__1::__libcpp_compressed_pair_imp"** %78, align 8
  %674 = getelementptr inbounds %"class.std::__1::__libcpp_compressed_pair_imp", %"class.std::__1::__libcpp_compressed_pair_imp"* %673, i32 0, i32 0
  %675 = getelementptr inbounds %"struct.std::__1::basic_string<char, std::__1::char_traits<char>, std::__1::allocator<char> >::__rep", %"struct.std::__1::basic_string<char, std::__1::char_traits<char>, std::__1::allocator<char> >::__rep"* %674, i32 0, i32 0
  %676 = bitcast %union.anon* %675 to %"struct.std::__1::basic_string<char, std::__1::char_traits<char>, std::__1::allocator<char> >::__short"*
  %677 = getelementptr inbounds %"struct.std::__1::basic_string<char, std::__1::char_traits<char>, std::__1::allocator<char> >::__short", %"struct.std::__1::basic_string<char, std::__1::char_traits<char>, std::__1::allocator<char> >::__short"* %676, i32 0, i32 1
  %678 = getelementptr inbounds [23 x i8], [23 x i8]* %677, i64 0, i64 0
  store i8* %678, i8** %77, align 8
  %679 = load i8*, i8** %77, align 8
  store i8* %679, i8** %76, align 8
  %680 = load i8*, i8** %76, align 8
  br label %681

; <label>:681:                                    ; preds = %668, %657
  %682 = phi i8* [ %667, %657 ], [ %680, %668 ]
  store i8* %682, i8** %72, align 8
  %683 = load i8*, i8** %72, align 8
  store i64* %122, i64** %96, align 8
  store i64* %123, i64** %97, align 8
  %684 = load i64*, i64** %96, align 8
  %685 = load i64*, i64** %97, align 8
  store i64* %684, i64** %92, align 8
  store i64* %685, i64** %93, align 8
  %686 = load i64*, i64** %93, align 8
  store i64* %686, i64** %90
  %687 = load i64*, i64** %92, align 8
  store i64* %687, i64** %89
  store i32 -1897297000, i32* %94
  br label %688

; <label>:688:                                    ; preds = %705, %681
  %689 = load i32, i32* %94
  switch i32 %689, label %690 [
    i32 -1897297000, label %691
    i32 1662013836, label %701
    i32 -416271492, label %703
    i32 226690698, label %706
  ]

; <label>:690:                                    ; preds = %688
  br label %705

; <label>:691:                                    ; preds = %688
  %692 = load volatile i64*, i64** %90
  %693 = load volatile i64*, i64** %89
  store %"struct.std::__1::__less"* %91, %"struct.std::__1::__less"** %86, align 8
  store i64* %692, i64** %87, align 8
  store i64* %693, i64** %88, align 8
  %694 = load %"struct.std::__1::__less"*, %"struct.std::__1::__less"** %86, align 8
  %695 = load i64*, i64** %87, align 8
  %696 = load i64, i64* %695, align 8
  %697 = load i64*, i64** %88, align 8
  %698 = load i64, i64* %697, align 8
  %699 = icmp ult i64 %696, %698
  %700 = select i1 %699, i32 1662013836, i32 -416271492
  store i32 %700, i32* %94
  br label %705

; <label>:701:                                    ; preds = %688
  %702 = load i64*, i64** %93, align 8
  store i32 226690698, i32* %94
  store i64* %702, i64** %95
  br label %705

; <label>:703:                                    ; preds = %688
  %704 = load i64*, i64** %92, align 8
  store i32 226690698, i32* %94
  store i64* %704, i64** %95
  br label %705

; <label>:705:                                    ; preds = %703, %701, %691, %690
  br label %688

; <label>:706:                                    ; preds = %688
  %707 = load i64*, i64** %95
  %708 = load i64, i64* %707, align 8
  %709 = invoke i32 @_ZNSt3__111char_traitsIcE7compareEPKcS3_m(i8* %639, i8* %683, i64 %708)
          to label %710 unwind label %715

; <label>:710:                                    ; preds = %706
  store i32 %709, i32* %124, align 4
  %711 = load i32, i32* %124, align 4
  %712 = icmp ne i32 %711, 0
  br i1 %712, label %713, label %720

; <label>:713:                                    ; preds = %710
  %714 = load i32, i32* %124, align 4
  store i32 %714, i32* %119, align 4
  br label %731

; <label>:715:                                    ; preds = %706
  %716 = landingpad { i8*, i32 }
          filter [0 x i8*] zeroinitializer
  %717 = extractvalue { i8*, i32 } %716, 0
  store i8* %717, i8** %125, align 8
  %718 = extractvalue { i8*, i32 } %716, 1
  store i32 %718, i32* %126, align 4
  %719 = load i8*, i8** %125, align 8
  call void @__cxa_call_unexpected(i8* %719) #13
  unreachable

; <label>:720:                                    ; preds = %710
  %721 = load i64, i64* %122, align 8
  %722 = load i64, i64* %123, align 8
  %723 = icmp ult i64 %721, %722
  br i1 %723, label %724, label %725

; <label>:724:                                    ; preds = %720
  store i32 -1, i32* %119, align 4
  br label %731

; <label>:725:                                    ; preds = %720
  %726 = load i64, i64* %122, align 8
  %727 = load i64, i64* %123, align 8
  %728 = icmp ugt i64 %726, %727
  br i1 %728, label %729, label %730

; <label>:729:                                    ; preds = %725
  store i32 1, i32* %119, align 4
  br label %731

; <label>:730:                                    ; preds = %725
  store i32 0, i32* %119, align 4
  br label %731

; <label>:731:                                    ; preds = %713, %724, %729, %730
  %732 = load i32, i32* %119, align 4
  %733 = icmp ne i32 %732, 0
  br i1 %733, label %745, label %734

; <label>:734:                                    ; preds = %731
  store i1 false, i1* %207, align 1
  store i32 1, i32* %218, align 4
  br label %947

; <label>:735:                                    ; preds = %495
  %736 = landingpad { i8*, i32 }
          cleanup
  %737 = extractvalue { i8*, i32 } %736, 0
  store i8* %737, i8** %213, align 8
  %738 = extractvalue { i8*, i32 } %736, 1
  store i32 %738, i32* %214, align 4
  invoke void @_ZNSt3__112basic_stringIcNS_11char_traitsIcEENS_9allocatorIcEEED1Ev(%"class.std::__1::basic_string"* %215)
          to label %739 unwind label %959

; <label>:739:                                    ; preds = %735
  br label %952

; <label>:740:                                    ; preds = %506
  %741 = landingpad { i8*, i32 }
          cleanup
  %742 = extractvalue { i8*, i32 } %741, 0
  store i8* %742, i8** %213, align 8
  %743 = extractvalue { i8*, i32 } %741, 1
  store i32 %743, i32* %214, align 4
  invoke void @_ZNSt3__112basic_stringIcNS_11char_traitsIcEENS_9allocatorIcEEED1Ev(%"class.std::__1::basic_string"* %217)
          to label %744 unwind label %959

; <label>:744:                                    ; preds = %740
  br label %952

; <label>:745:                                    ; preds = %731
  store %"class.std::__1::basic_string"* %209, %"class.std::__1::basic_string"** %56, align 8
  store i8* getelementptr inbounds ([1 x i8], [1 x i8]* @.str.2, i32 0, i32 0), i8** %57, align 8
  %746 = load %"class.std::__1::basic_string"*, %"class.std::__1::basic_string"** %56, align 8
  %747 = load i8*, i8** %57, align 8
  %748 = invoke dereferenceable(24) %"class.std::__1::basic_string"* @_ZNSt3__112basic_stringIcNS_11char_traitsIcEENS_9allocatorIcEEE6assignEPKc(%"class.std::__1::basic_string"* %746, i8* %747)
          to label %749 unwind label %918

; <label>:749:                                    ; preds = %745
  br label %750

; <label>:750:                                    ; preds = %749
  store i64 0, i64* %219, align 8
  br label %751

; <label>:751:                                    ; preds = %915, %750
  %752 = load i64, i64* %219, align 8
  %753 = icmp slt i64 %752, 9
  br i1 %753, label %754, label %927

; <label>:754:                                    ; preds = %751
  %755 = load i64, i64* %219, align 8
  store %"class.std::__1::basic_string"* %0, %"class.std::__1::basic_string"** %54, align 8
  store i64 %755, i64* %55, align 8
  %756 = load %"class.std::__1::basic_string"*, %"class.std::__1::basic_string"** %54, align 8
  store %"class.std::__1::basic_string"* %756, %"class.std::__1::basic_string"** %53, align 8
  %757 = load %"class.std::__1::basic_string"*, %"class.std::__1::basic_string"** %53, align 8
  store %"class.std::__1::basic_string"* %757, %"class.std::__1::basic_string"** %52, align 8
  %758 = load %"class.std::__1::basic_string"*, %"class.std::__1::basic_string"** %52, align 8
  %759 = getelementptr inbounds %"class.std::__1::basic_string", %"class.std::__1::basic_string"* %758, i32 0, i32 0
  store %"class.std::__1::__compressed_pair"* %759, %"class.std::__1::__compressed_pair"** %51, align 8
  %760 = load %"class.std::__1::__compressed_pair"*, %"class.std::__1::__compressed_pair"** %51, align 8
  %761 = bitcast %"class.std::__1::__compressed_pair"* %760 to %"class.std::__1::__libcpp_compressed_pair_imp"*
  store %"class.std::__1::__libcpp_compressed_pair_imp"* %761, %"class.std::__1::__libcpp_compressed_pair_imp"** %50, align 8
  %762 = load %"class.std::__1::__libcpp_compressed_pair_imp"*, %"class.std::__1::__libcpp_compressed_pair_imp"** %50, align 8
  %763 = getelementptr inbounds %"class.std::__1::__libcpp_compressed_pair_imp", %"class.std::__1::__libcpp_compressed_pair_imp"* %762, i32 0, i32 0
  %764 = getelementptr inbounds %"struct.std::__1::basic_string<char, std::__1::char_traits<char>, std::__1::allocator<char> >::__rep", %"struct.std::__1::basic_string<char, std::__1::char_traits<char>, std::__1::allocator<char> >::__rep"* %763, i32 0, i32 0
  %765 = bitcast %union.anon* %764 to %"struct.std::__1::basic_string<char, std::__1::char_traits<char>, std::__1::allocator<char> >::__short"*
  %766 = getelementptr inbounds %"struct.std::__1::basic_string<char, std::__1::char_traits<char>, std::__1::allocator<char> >::__short", %"struct.std::__1::basic_string<char, std::__1::char_traits<char>, std::__1::allocator<char> >::__short"* %765, i32 0, i32 0
  %767 = bitcast %union.anon.0* %766 to i8*
  %768 = load i8, i8* %767, align 8
  %769 = zext i8 %768 to i32
  %770 = and i32 %769, 1
  %771 = icmp ne i32 %770, 0
  br i1 %771, label %772, label %783

; <label>:772:                                    ; preds = %754
  store %"class.std::__1::basic_string"* %757, %"class.std::__1::basic_string"** %44, align 8
  %773 = load %"class.std::__1::basic_string"*, %"class.std::__1::basic_string"** %44, align 8
  %774 = getelementptr inbounds %"class.std::__1::basic_string", %"class.std::__1::basic_string"* %773, i32 0, i32 0
  store %"class.std::__1::__compressed_pair"* %774, %"class.std::__1::__compressed_pair"** %43, align 8
  %775 = load %"class.std::__1::__compressed_pair"*, %"class.std::__1::__compressed_pair"** %43, align 8
  %776 = bitcast %"class.std::__1::__compressed_pair"* %775 to %"class.std::__1::__libcpp_compressed_pair_imp"*
  store %"class.std::__1::__libcpp_compressed_pair_imp"* %776, %"class.std::__1::__libcpp_compressed_pair_imp"** %42, align 8
  %777 = load %"class.std::__1::__libcpp_compressed_pair_imp"*, %"class.std::__1::__libcpp_compressed_pair_imp"** %42, align 8
  %778 = getelementptr inbounds %"class.std::__1::__libcpp_compressed_pair_imp", %"class.std::__1::__libcpp_compressed_pair_imp"* %777, i32 0, i32 0
  %779 = getelementptr inbounds %"struct.std::__1::basic_string<char, std::__1::char_traits<char>, std::__1::allocator<char> >::__rep", %"struct.std::__1::basic_string<char, std::__1::char_traits<char>, std::__1::allocator<char> >::__rep"* %778, i32 0, i32 0
  %780 = bitcast %union.anon* %779 to %"struct.std::__1::basic_string<char, std::__1::char_traits<char>, std::__1::allocator<char> >::__long"*
  %781 = getelementptr inbounds %"struct.std::__1::basic_string<char, std::__1::char_traits<char>, std::__1::allocator<char> >::__long", %"struct.std::__1::basic_string<char, std::__1::char_traits<char>, std::__1::allocator<char> >::__long"* %780, i32 0, i32 2
  %782 = load i8*, i8** %781, align 8
  br label %796

; <label>:783:                                    ; preds = %754
  store %"class.std::__1::basic_string"* %757, %"class.std::__1::basic_string"** %49, align 8
  %784 = load %"class.std::__1::basic_string"*, %"class.std::__1::basic_string"** %49, align 8
  %785 = getelementptr inbounds %"class.std::__1::basic_string", %"class.std::__1::basic_string"* %784, i32 0, i32 0
  store %"class.std::__1::__compressed_pair"* %785, %"class.std::__1::__compressed_pair"** %48, align 8
  %786 = load %"class.std::__1::__compressed_pair"*, %"class.std::__1::__compressed_pair"** %48, align 8
  %787 = bitcast %"class.std::__1::__compressed_pair"* %786 to %"class.std::__1::__libcpp_compressed_pair_imp"*
  store %"class.std::__1::__libcpp_compressed_pair_imp"* %787, %"class.std::__1::__libcpp_compressed_pair_imp"** %47, align 8
  %788 = load %"class.std::__1::__libcpp_compressed_pair_imp"*, %"class.std::__1::__libcpp_compressed_pair_imp"** %47, align 8
  %789 = getelementptr inbounds %"class.std::__1::__libcpp_compressed_pair_imp", %"class.std::__1::__libcpp_compressed_pair_imp"* %788, i32 0, i32 0
  %790 = getelementptr inbounds %"struct.std::__1::basic_string<char, std::__1::char_traits<char>, std::__1::allocator<char> >::__rep", %"struct.std::__1::basic_string<char, std::__1::char_traits<char>, std::__1::allocator<char> >::__rep"* %789, i32 0, i32 0
  %791 = bitcast %union.anon* %790 to %"struct.std::__1::basic_string<char, std::__1::char_traits<char>, std::__1::allocator<char> >::__short"*
  %792 = getelementptr inbounds %"struct.std::__1::basic_string<char, std::__1::char_traits<char>, std::__1::allocator<char> >::__short", %"struct.std::__1::basic_string<char, std::__1::char_traits<char>, std::__1::allocator<char> >::__short"* %791, i32 0, i32 1
  %793 = getelementptr inbounds [23 x i8], [23 x i8]* %792, i64 0, i64 0
  store i8* %793, i8** %46, align 8
  %794 = load i8*, i8** %46, align 8
  store i8* %794, i8** %45, align 8
  %795 = load i8*, i8** %45, align 8
  br label %796

; <label>:796:                                    ; preds = %772, %783
  %797 = phi i8* [ %782, %772 ], [ %795, %783 ]
  %798 = load i64, i64* %55, align 8
  %799 = getelementptr inbounds i8, i8* %797, i64 %798
  br label %800

; <label>:800:                                    ; preds = %796
  %801 = load i8, i8* %799, align 1
  store %"class.std::__1::basic_string"* %220, %"class.std::__1::basic_string"** %39, align 8
  store i64 1, i64* %40, align 8
  store i8 %801, i8* %41, align 1
  %802 = load %"class.std::__1::basic_string"*, %"class.std::__1::basic_string"** %39, align 8
  %803 = load i64, i64* %40, align 8
  %804 = load i8, i8* %41, align 1
  store %"class.std::__1::basic_string"* %802, %"class.std::__1::basic_string"** %36, align 8
  store i64 %803, i64* %37, align 8
  store i8 %804, i8* %38, align 1
  %805 = load %"class.std::__1::basic_string"*, %"class.std::__1::basic_string"** %36, align 8
  %806 = bitcast %"class.std::__1::basic_string"* %805 to %"class.std::__1::__basic_string_common"*
  %807 = getelementptr inbounds %"class.std::__1::basic_string", %"class.std::__1::basic_string"* %805, i32 0, i32 0
  store %"class.std::__1::__compressed_pair"* %807, %"class.std::__1::__compressed_pair"** %35, align 8
  %808 = load %"class.std::__1::__compressed_pair"*, %"class.std::__1::__compressed_pair"** %35, align 8
  store %"class.std::__1::__compressed_pair"* %808, %"class.std::__1::__compressed_pair"** %34, align 8
  %809 = load %"class.std::__1::__compressed_pair"*, %"class.std::__1::__compressed_pair"** %34, align 8
  %810 = bitcast %"class.std::__1::__compressed_pair"* %809 to %"class.std::__1::__libcpp_compressed_pair_imp"*
  store %"class.std::__1::__libcpp_compressed_pair_imp"* %810, %"class.std::__1::__libcpp_compressed_pair_imp"** %33, align 8
  %811 = load %"class.std::__1::__libcpp_compressed_pair_imp"*, %"class.std::__1::__libcpp_compressed_pair_imp"** %33, align 8
  %812 = bitcast %"class.std::__1::__libcpp_compressed_pair_imp"* %811 to %"class.std::__1::allocator"*
  store %"class.std::__1::allocator"* %812, %"class.std::__1::allocator"** %32, align 8
  %813 = load %"class.std::__1::allocator"*, %"class.std::__1::allocator"** %32, align 8
  %814 = getelementptr inbounds %"class.std::__1::__libcpp_compressed_pair_imp", %"class.std::__1::__libcpp_compressed_pair_imp"* %811, i32 0, i32 0
  %815 = bitcast %"struct.std::__1::basic_string<char, std::__1::char_traits<char>, std::__1::allocator<char> >::__rep"* %814 to i8*
  call void @llvm.memset.p0i8.i64(i8* %815, i8 0, i64 24, i32 8, i1 false) #12
  %816 = load i64, i64* %37, align 8
  %817 = load i8, i8* %38, align 1
  invoke void @_ZNSt3__112basic_stringIcNS_11char_traitsIcEENS_9allocatorIcEEE6__initEmc(%"class.std::__1::basic_string"* %805, i64 %816, i8 signext %817)
          to label %818 unwind label %918

; <label>:818:                                    ; preds = %800
  br label %819

; <label>:819:                                    ; preds = %818
  store %"class.std::__1::basic_string"* %209, %"class.std::__1::basic_string"** %30, align 8
  store %"class.std::__1::basic_string"* %220, %"class.std::__1::basic_string"** %31, align 8
  %820 = load %"class.std::__1::basic_string"*, %"class.std::__1::basic_string"** %30, align 8
  %821 = load %"class.std::__1::basic_string"*, %"class.std::__1::basic_string"** %31, align 8
  store %"class.std::__1::basic_string"* %820, %"class.std::__1::basic_string"** %28, align 8
  store %"class.std::__1::basic_string"* %821, %"class.std::__1::basic_string"** %29, align 8
  %822 = load %"class.std::__1::basic_string"*, %"class.std::__1::basic_string"** %28, align 8
  %823 = load %"class.std::__1::basic_string"*, %"class.std::__1::basic_string"** %29, align 8
  store %"class.std::__1::basic_string"* %823, %"class.std::__1::basic_string"** %27, align 8
  %824 = load %"class.std::__1::basic_string"*, %"class.std::__1::basic_string"** %27, align 8
  store %"class.std::__1::basic_string"* %824, %"class.std::__1::basic_string"** %26, align 8
  %825 = load %"class.std::__1::basic_string"*, %"class.std::__1::basic_string"** %26, align 8
  store %"class.std::__1::basic_string"* %825, %"class.std::__1::basic_string"** %25, align 8
  %826 = load %"class.std::__1::basic_string"*, %"class.std::__1::basic_string"** %25, align 8
  %827 = getelementptr inbounds %"class.std::__1::basic_string", %"class.std::__1::basic_string"* %826, i32 0, i32 0
  store %"class.std::__1::__compressed_pair"* %827, %"class.std::__1::__compressed_pair"** %24, align 8
  %828 = load %"class.std::__1::__compressed_pair"*, %"class.std::__1::__compressed_pair"** %24, align 8
  %829 = bitcast %"class.std::__1::__compressed_pair"* %828 to %"class.std::__1::__libcpp_compressed_pair_imp"*
  store %"class.std::__1::__libcpp_compressed_pair_imp"* %829, %"class.std::__1::__libcpp_compressed_pair_imp"** %23, align 8
  %830 = load %"class.std::__1::__libcpp_compressed_pair_imp"*, %"class.std::__1::__libcpp_compressed_pair_imp"** %23, align 8
  %831 = getelementptr inbounds %"class.std::__1::__libcpp_compressed_pair_imp", %"class.std::__1::__libcpp_compressed_pair_imp"* %830, i32 0, i32 0
  %832 = getelementptr inbounds %"struct.std::__1::basic_string<char, std::__1::char_traits<char>, std::__1::allocator<char> >::__rep", %"struct.std::__1::basic_string<char, std::__1::char_traits<char>, std::__1::allocator<char> >::__rep"* %831, i32 0, i32 0
  %833 = bitcast %union.anon* %832 to %"struct.std::__1::basic_string<char, std::__1::char_traits<char>, std::__1::allocator<char> >::__short"*
  %834 = getelementptr inbounds %"struct.std::__1::basic_string<char, std::__1::char_traits<char>, std::__1::allocator<char> >::__short", %"struct.std::__1::basic_string<char, std::__1::char_traits<char>, std::__1::allocator<char> >::__short"* %833, i32 0, i32 0
  %835 = bitcast %union.anon.0* %834 to i8*
  %836 = load i8, i8* %835, align 8
  %837 = zext i8 %836 to i32
  %838 = and i32 %837, 1
  %839 = icmp ne i32 %838, 0
  br i1 %839, label %840, label %851

; <label>:840:                                    ; preds = %819
  store %"class.std::__1::basic_string"* %825, %"class.std::__1::basic_string"** %17, align 8
  %841 = load %"class.std::__1::basic_string"*, %"class.std::__1::basic_string"** %17, align 8
  %842 = getelementptr inbounds %"class.std::__1::basic_string", %"class.std::__1::basic_string"* %841, i32 0, i32 0
  store %"class.std::__1::__compressed_pair"* %842, %"class.std::__1::__compressed_pair"** %16, align 8
  %843 = load %"class.std::__1::__compressed_pair"*, %"class.std::__1::__compressed_pair"** %16, align 8
  %844 = bitcast %"class.std::__1::__compressed_pair"* %843 to %"class.std::__1::__libcpp_compressed_pair_imp"*
  store %"class.std::__1::__libcpp_compressed_pair_imp"* %844, %"class.std::__1::__libcpp_compressed_pair_imp"** %15, align 8
  %845 = load %"class.std::__1::__libcpp_compressed_pair_imp"*, %"class.std::__1::__libcpp_compressed_pair_imp"** %15, align 8
  %846 = getelementptr inbounds %"class.std::__1::__libcpp_compressed_pair_imp", %"class.std::__1::__libcpp_compressed_pair_imp"* %845, i32 0, i32 0
  %847 = getelementptr inbounds %"struct.std::__1::basic_string<char, std::__1::char_traits<char>, std::__1::allocator<char> >::__rep", %"struct.std::__1::basic_string<char, std::__1::char_traits<char>, std::__1::allocator<char> >::__rep"* %846, i32 0, i32 0
  %848 = bitcast %union.anon* %847 to %"struct.std::__1::basic_string<char, std::__1::char_traits<char>, std::__1::allocator<char> >::__long"*
  %849 = getelementptr inbounds %"struct.std::__1::basic_string<char, std::__1::char_traits<char>, std::__1::allocator<char> >::__long", %"struct.std::__1::basic_string<char, std::__1::char_traits<char>, std::__1::allocator<char> >::__long"* %848, i32 0, i32 2
  %850 = load i8*, i8** %849, align 8
  br label %864

; <label>:851:                                    ; preds = %819
  store %"class.std::__1::basic_string"* %825, %"class.std::__1::basic_string"** %22, align 8
  %852 = load %"class.std::__1::basic_string"*, %"class.std::__1::basic_string"** %22, align 8
  %853 = getelementptr inbounds %"class.std::__1::basic_string", %"class.std::__1::basic_string"* %852, i32 0, i32 0
  store %"class.std::__1::__compressed_pair"* %853, %"class.std::__1::__compressed_pair"** %21, align 8
  %854 = load %"class.std::__1::__compressed_pair"*, %"class.std::__1::__compressed_pair"** %21, align 8
  %855 = bitcast %"class.std::__1::__compressed_pair"* %854 to %"class.std::__1::__libcpp_compressed_pair_imp"*
  store %"class.std::__1::__libcpp_compressed_pair_imp"* %855, %"class.std::__1::__libcpp_compressed_pair_imp"** %20, align 8
  %856 = load %"class.std::__1::__libcpp_compressed_pair_imp"*, %"class.std::__1::__libcpp_compressed_pair_imp"** %20, align 8
  %857 = getelementptr inbounds %"class.std::__1::__libcpp_compressed_pair_imp", %"class.std::__1::__libcpp_compressed_pair_imp"* %856, i32 0, i32 0
  %858 = getelementptr inbounds %"struct.std::__1::basic_string<char, std::__1::char_traits<char>, std::__1::allocator<char> >::__rep", %"struct.std::__1::basic_string<char, std::__1::char_traits<char>, std::__1::allocator<char> >::__rep"* %857, i32 0, i32 0
  %859 = bitcast %union.anon* %858 to %"struct.std::__1::basic_string<char, std::__1::char_traits<char>, std::__1::allocator<char> >::__short"*
  %860 = getelementptr inbounds %"struct.std::__1::basic_string<char, std::__1::char_traits<char>, std::__1::allocator<char> >::__short", %"struct.std::__1::basic_string<char, std::__1::char_traits<char>, std::__1::allocator<char> >::__short"* %859, i32 0, i32 1
  %861 = getelementptr inbounds [23 x i8], [23 x i8]* %860, i64 0, i64 0
  store i8* %861, i8** %19, align 8
  %862 = load i8*, i8** %19, align 8
  store i8* %862, i8** %18, align 8
  %863 = load i8*, i8** %18, align 8
  br label %864

; <label>:864:                                    ; preds = %851, %840
  %865 = phi i8* [ %850, %840 ], [ %863, %851 ]
  store i8* %865, i8** %14, align 8
  %866 = load i8*, i8** %14, align 8
  %867 = load %"class.std::__1::basic_string"*, %"class.std::__1::basic_string"** %29, align 8
  store %"class.std::__1::basic_string"* %867, %"class.std::__1::basic_string"** %13, align 8
  %868 = load %"class.std::__1::basic_string"*, %"class.std::__1::basic_string"** %13, align 8
  store %"class.std::__1::basic_string"* %868, %"class.std::__1::basic_string"** %12, align 8
  %869 = load %"class.std::__1::basic_string"*, %"class.std::__1::basic_string"** %12, align 8
  %870 = getelementptr inbounds %"class.std::__1::basic_string", %"class.std::__1::basic_string"* %869, i32 0, i32 0
  store %"class.std::__1::__compressed_pair"* %870, %"class.std::__1::__compressed_pair"** %11, align 8
  %871 = load %"class.std::__1::__compressed_pair"*, %"class.std::__1::__compressed_pair"** %11, align 8
  %872 = bitcast %"class.std::__1::__compressed_pair"* %871 to %"class.std::__1::__libcpp_compressed_pair_imp"*
  store %"class.std::__1::__libcpp_compressed_pair_imp"* %872, %"class.std::__1::__libcpp_compressed_pair_imp"** %10, align 8
  %873 = load %"class.std::__1::__libcpp_compressed_pair_imp"*, %"class.std::__1::__libcpp_compressed_pair_imp"** %10, align 8
  %874 = getelementptr inbounds %"class.std::__1::__libcpp_compressed_pair_imp", %"class.std::__1::__libcpp_compressed_pair_imp"* %873, i32 0, i32 0
  %875 = getelementptr inbounds %"struct.std::__1::basic_string<char, std::__1::char_traits<char>, std::__1::allocator<char> >::__rep", %"struct.std::__1::basic_string<char, std::__1::char_traits<char>, std::__1::allocator<char> >::__rep"* %874, i32 0, i32 0
  %876 = bitcast %union.anon* %875 to %"struct.std::__1::basic_string<char, std::__1::char_traits<char>, std::__1::allocator<char> >::__short"*
  %877 = getelementptr inbounds %"struct.std::__1::basic_string<char, std::__1::char_traits<char>, std::__1::allocator<char> >::__short", %"struct.std::__1::basic_string<char, std::__1::char_traits<char>, std::__1::allocator<char> >::__short"* %876, i32 0, i32 0
  %878 = bitcast %union.anon.0* %877 to i8*
  %879 = load i8, i8* %878, align 8
  %880 = zext i8 %879 to i32
  %881 = and i32 %880, 1
  %882 = icmp ne i32 %881, 0
  br i1 %882, label %883, label %894

; <label>:883:                                    ; preds = %864
  store %"class.std::__1::basic_string"* %868, %"class.std::__1::basic_string"** %6, align 8
  %884 = load %"class.std::__1::basic_string"*, %"class.std::__1::basic_string"** %6, align 8
  %885 = getelementptr inbounds %"class.std::__1::basic_string", %"class.std::__1::basic_string"* %884, i32 0, i32 0
  store %"class.std::__1::__compressed_pair"* %885, %"class.std::__1::__compressed_pair"** %5, align 8
  %886 = load %"class.std::__1::__compressed_pair"*, %"class.std::__1::__compressed_pair"** %5, align 8
  %887 = bitcast %"class.std::__1::__compressed_pair"* %886 to %"class.std::__1::__libcpp_compressed_pair_imp"*
  store %"class.std::__1::__libcpp_compressed_pair_imp"* %887, %"class.std::__1::__libcpp_compressed_pair_imp"** %4, align 8
  %888 = load %"class.std::__1::__libcpp_compressed_pair_imp"*, %"class.std::__1::__libcpp_compressed_pair_imp"** %4, align 8
  %889 = getelementptr inbounds %"class.std::__1::__libcpp_compressed_pair_imp", %"class.std::__1::__libcpp_compressed_pair_imp"* %888, i32 0, i32 0
  %890 = getelementptr inbounds %"struct.std::__1::basic_string<char, std::__1::char_traits<char>, std::__1::allocator<char> >::__rep", %"struct.std::__1::basic_string<char, std::__1::char_traits<char>, std::__1::allocator<char> >::__rep"* %889, i32 0, i32 0
  %891 = bitcast %union.anon* %890 to %"struct.std::__1::basic_string<char, std::__1::char_traits<char>, std::__1::allocator<char> >::__long"*
  %892 = getelementptr inbounds %"struct.std::__1::basic_string<char, std::__1::char_traits<char>, std::__1::allocator<char> >::__long", %"struct.std::__1::basic_string<char, std::__1::char_traits<char>, std::__1::allocator<char> >::__long"* %891, i32 0, i32 1
  %893 = load i64, i64* %892, align 8
  br label %909

; <label>:894:                                    ; preds = %864
  store %"class.std::__1::basic_string"* %868, %"class.std::__1::basic_string"** %9, align 8
  %895 = load %"class.std::__1::basic_string"*, %"class.std::__1::basic_string"** %9, align 8
  %896 = getelementptr inbounds %"class.std::__1::basic_string", %"class.std::__1::basic_string"* %895, i32 0, i32 0
  store %"class.std::__1::__compressed_pair"* %896, %"class.std::__1::__compressed_pair"** %8, align 8
  %897 = load %"class.std::__1::__compressed_pair"*, %"class.std::__1::__compressed_pair"** %8, align 8
  %898 = bitcast %"class.std::__1::__compressed_pair"* %897 to %"class.std::__1::__libcpp_compressed_pair_imp"*
  store %"class.std::__1::__libcpp_compressed_pair_imp"* %898, %"class.std::__1::__libcpp_compressed_pair_imp"** %7, align 8
  %899 = load %"class.std::__1::__libcpp_compressed_pair_imp"*, %"class.std::__1::__libcpp_compressed_pair_imp"** %7, align 8
  %900 = getelementptr inbounds %"class.std::__1::__libcpp_compressed_pair_imp", %"class.std::__1::__libcpp_compressed_pair_imp"* %899, i32 0, i32 0
  %901 = getelementptr inbounds %"struct.std::__1::basic_string<char, std::__1::char_traits<char>, std::__1::allocator<char> >::__rep", %"struct.std::__1::basic_string<char, std::__1::char_traits<char>, std::__1::allocator<char> >::__rep"* %900, i32 0, i32 0
  %902 = bitcast %union.anon* %901 to %"struct.std::__1::basic_string<char, std::__1::char_traits<char>, std::__1::allocator<char> >::__short"*
  %903 = getelementptr inbounds %"struct.std::__1::basic_string<char, std::__1::char_traits<char>, std::__1::allocator<char> >::__short", %"struct.std::__1::basic_string<char, std::__1::char_traits<char>, std::__1::allocator<char> >::__short"* %902, i32 0, i32 0
  %904 = bitcast %union.anon.0* %903 to i8*
  %905 = load i8, i8* %904, align 8
  %906 = zext i8 %905 to i32
  %907 = ashr i32 %906, 1
  %908 = sext i32 %907 to i64
  br label %909

; <label>:909:                                    ; preds = %894, %883
  %910 = phi i64 [ %893, %883 ], [ %908, %894 ]
  %911 = invoke dereferenceable(24) %"class.std::__1::basic_string"* @_ZNSt3__112basic_stringIcNS_11char_traitsIcEENS_9allocatorIcEEE6appendEPKcm(%"class.std::__1::basic_string"* %822, i8* %866, i64 %910)
          to label %912 unwind label %922

; <label>:912:                                    ; preds = %909
  br label %913

; <label>:913:                                    ; preds = %912
  invoke void @_ZNSt3__112basic_stringIcNS_11char_traitsIcEENS_9allocatorIcEEED1Ev(%"class.std::__1::basic_string"* %220)
          to label %914 unwind label %918

; <label>:914:                                    ; preds = %913
  br label %915

; <label>:915:                                    ; preds = %914
  %916 = load i64, i64* %219, align 8
  %917 = add nsw i64 %916, 1
  store i64 %917, i64* %219, align 8
  br label %751

; <label>:918:                                    ; preds = %800, %745, %940, %938, %931, %929, %927, %913
  %919 = landingpad { i8*, i32 }
          cleanup
  %920 = extractvalue { i8*, i32 } %919, 0
  store i8* %920, i8** %213, align 8
  %921 = extractvalue { i8*, i32 } %919, 1
  store i32 %921, i32* %214, align 4
  br label %950

; <label>:922:                                    ; preds = %909
  %923 = landingpad { i8*, i32 }
          cleanup
  %924 = extractvalue { i8*, i32 } %923, 0
  store i8* %924, i8** %213, align 8
  %925 = extractvalue { i8*, i32 } %923, 1
  store i32 %925, i32* %214, align 4
  invoke void @_ZNSt3__112basic_stringIcNS_11char_traitsIcEENS_9allocatorIcEEED1Ev(%"class.std::__1::basic_string"* %220)
          to label %926 unwind label %959

; <label>:926:                                    ; preds = %922
  br label %950

; <label>:927:                                    ; preds = %751
  %928 = invoke i64 @_ZNSt3__14stolERKNS_12basic_stringIcNS_11char_traitsIcEENS_9allocatorIcEEEEPmi(%"class.std::__1::basic_string"* dereferenceable(24) %209, i64* null, i32 10)
          to label %929 unwind label %918

; <label>:929:                                    ; preds = %927
  store i64 %928, i64* %221, align 8
  %930 = invoke i64 @_ZNSt3__14stolERKNS_12basic_stringIcNS_11char_traitsIcEENS_9allocatorIcEEEEPmi(%"class.std::__1::basic_string"* dereferenceable(24) %2, i64* null, i32 10)
          to label %931 unwind label %918

; <label>:931:                                    ; preds = %929
  %932 = load i64, i64* %221, align 8
  %933 = trunc i64 %932 to i32
  %934 = invoke i64 @_Z26inverseOfSharableFunctionGi(i32 %933)
          to label %935 unwind label %918

; <label>:935:                                    ; preds = %931
  %936 = icmp eq i64 %930, %934
  br i1 %936, label %937, label %938

; <label>:937:                                    ; preds = %935
  store i1 true, i1* %207, align 1
  store i32 1, i32* %218, align 4
  br label %947

; <label>:938:                                    ; preds = %935
  %939 = invoke dereferenceable(160) %"class.std::__1::basic_ostream"* @_ZNSt3__1lsINS_11char_traitsIcEEEERNS_13basic_ostreamIcT_EES6_PKc(%"class.std::__1::basic_ostream"* dereferenceable(160) @_ZNSt3__14coutE, i8* getelementptr inbounds ([5 x i8], [5 x i8]* @.str.3, i32 0, i32 0))
          to label %940 unwind label %918

; <label>:940:                                    ; preds = %938
  store %"class.std::__1::basic_ostream"* %939, %"class.std::__1::basic_ostream"** %183, align 8
  store %"class.std::__1::basic_ostream"* (%"class.std::__1::basic_ostream"*)* @_ZNSt3__14endlIcNS_11char_traitsIcEEEERNS_13basic_ostreamIT_T0_EES7_, %"class.std::__1::basic_ostream"* (%"class.std::__1::basic_ostream"*)** %184, align 8
  %941 = load %"class.std::__1::basic_ostream"*, %"class.std::__1::basic_ostream"** %183, align 8
  %942 = load %"class.std::__1::basic_ostream"* (%"class.std::__1::basic_ostream"*)*, %"class.std::__1::basic_ostream"* (%"class.std::__1::basic_ostream"*)** %184, align 8
  %943 = invoke dereferenceable(160) %"class.std::__1::basic_ostream"* %942(%"class.std::__1::basic_ostream"* dereferenceable(160) %941)
          to label %944 unwind label %918

; <label>:944:                                    ; preds = %940
  br label %945

; <label>:945:                                    ; preds = %944
  br label %946

; <label>:946:                                    ; preds = %945
  store i1 false, i1* %207, align 1
  store i32 1, i32* %218, align 4
  br label %947

; <label>:947:                                    ; preds = %946, %937, %734
  invoke void @_ZNSt3__112basic_stringIcNS_11char_traitsIcEENS_9allocatorIcEEED1Ev(%"class.std::__1::basic_string"* %216)
          to label %948 unwind label %470

; <label>:948:                                    ; preds = %947
  call void @_ZNSt3__112basic_stringIcNS_11char_traitsIcEENS_9allocatorIcEEED1Ev(%"class.std::__1::basic_string"* %209)
  %949 = load i1, i1* %207, align 1
  ret i1 %949

; <label>:950:                                    ; preds = %926, %918
  invoke void @_ZNSt3__112basic_stringIcNS_11char_traitsIcEENS_9allocatorIcEEED1Ev(%"class.std::__1::basic_string"* %216)
          to label %951 unwind label %959

; <label>:951:                                    ; preds = %950
  br label %952

; <label>:952:                                    ; preds = %951, %744, %739, %484, %470
  invoke void @_ZNSt3__112basic_stringIcNS_11char_traitsIcEENS_9allocatorIcEEED1Ev(%"class.std::__1::basic_string"* %209)
          to label %953 unwind label %959

; <label>:953:                                    ; preds = %952
  br label %954

; <label>:954:                                    ; preds = %953
  %955 = load i8*, i8** %213, align 8
  %956 = load i32, i32* %214, align 4
  %957 = insertvalue { i8*, i32 } undef, i8* %955, 0
  %958 = insertvalue { i8*, i32 } %957, i32 %956, 1
  resume { i8*, i32 } %958

; <label>:959:                                    ; preds = %952, %950, %922, %740, %735, %483, %478
  %960 = landingpad { i8*, i32 }
          catch i8* null
  %961 = extractvalue { i8*, i32 } %960, 0
  call void @__clang_call_terminate(i8* %961) #13
  unreachable
}

declare void @_ZNSt3__19to_stringEi(%"class.std::__1::basic_string"* sret, i32) #1

declare i32 @_ZNSt3__14stoiERKNS_12basic_stringIcNS_11char_traitsIcEENS_9allocatorIcEEEEPmi(%"class.std::__1::basic_string"* dereferenceable(24), i64*, i32) #1

; Function Attrs: noinline ssp uwtable
define linkonce_odr dereferenceable(160) %"class.std::__1::basic_ostream"* @_ZNSt3__1lsIcNS_11char_traitsIcEENS_9allocatorIcEEEERNS_13basic_ostreamIT_T0_EES9_RKNS_12basic_stringIS6_S7_T1_EE(%"class.std::__1::basic_ostream"* dereferenceable(160), %"class.std::__1::basic_string"* dereferenceable(24)) #0 {
  %3 = alloca %"class.std::__1::__libcpp_compressed_pair_imp"*, align 8
  %4 = alloca %"class.std::__1::__compressed_pair"*, align 8
  %5 = alloca %"class.std::__1::basic_string"*, align 8
  %6 = alloca %"class.std::__1::__libcpp_compressed_pair_imp"*, align 8
  %7 = alloca %"class.std::__1::__compressed_pair"*, align 8
  %8 = alloca %"class.std::__1::basic_string"*, align 8
  %9 = alloca %"class.std::__1::__libcpp_compressed_pair_imp"*, align 8
  %10 = alloca %"class.std::__1::__compressed_pair"*, align 8
  %11 = alloca %"class.std::__1::basic_string"*, align 8
  %12 = alloca %"class.std::__1::basic_string"*, align 8
  %13 = alloca i8*, align 8
  %14 = alloca %"class.std::__1::__libcpp_compressed_pair_imp"*, align 8
  %15 = alloca %"class.std::__1::__compressed_pair"*, align 8
  %16 = alloca %"class.std::__1::basic_string"*, align 8
  %17 = alloca i8*, align 8
  %18 = alloca i8*, align 8
  %19 = alloca %"class.std::__1::__libcpp_compressed_pair_imp"*, align 8
  %20 = alloca %"class.std::__1::__compressed_pair"*, align 8
  %21 = alloca %"class.std::__1::basic_string"*, align 8
  %22 = alloca %"class.std::__1::__libcpp_compressed_pair_imp"*, align 8
  %23 = alloca %"class.std::__1::__compressed_pair"*, align 8
  %24 = alloca %"class.std::__1::basic_string"*, align 8
  %25 = alloca %"class.std::__1::basic_string"*, align 8
  %26 = alloca %"class.std::__1::basic_string"*, align 8
  %27 = alloca %"class.std::__1::basic_ostream"*, align 8
  %28 = alloca %"class.std::__1::basic_string"*, align 8
  store %"class.std::__1::basic_ostream"* %0, %"class.std::__1::basic_ostream"** %27, align 8
  store %"class.std::__1::basic_string"* %1, %"class.std::__1::basic_string"** %28, align 8
  %29 = load %"class.std::__1::basic_ostream"*, %"class.std::__1::basic_ostream"** %27, align 8
  %30 = load %"class.std::__1::basic_string"*, %"class.std::__1::basic_string"** %28, align 8
  store %"class.std::__1::basic_string"* %30, %"class.std::__1::basic_string"** %26, align 8
  %31 = load %"class.std::__1::basic_string"*, %"class.std::__1::basic_string"** %26, align 8
  store %"class.std::__1::basic_string"* %31, %"class.std::__1::basic_string"** %25, align 8
  %32 = load %"class.std::__1::basic_string"*, %"class.std::__1::basic_string"** %25, align 8
  store %"class.std::__1::basic_string"* %32, %"class.std::__1::basic_string"** %24, align 8
  %33 = load %"class.std::__1::basic_string"*, %"class.std::__1::basic_string"** %24, align 8
  %34 = getelementptr inbounds %"class.std::__1::basic_string", %"class.std::__1::basic_string"* %33, i32 0, i32 0
  store %"class.std::__1::__compressed_pair"* %34, %"class.std::__1::__compressed_pair"** %23, align 8
  %35 = load %"class.std::__1::__compressed_pair"*, %"class.std::__1::__compressed_pair"** %23, align 8
  %36 = bitcast %"class.std::__1::__compressed_pair"* %35 to %"class.std::__1::__libcpp_compressed_pair_imp"*
  store %"class.std::__1::__libcpp_compressed_pair_imp"* %36, %"class.std::__1::__libcpp_compressed_pair_imp"** %22, align 8
  %37 = load %"class.std::__1::__libcpp_compressed_pair_imp"*, %"class.std::__1::__libcpp_compressed_pair_imp"** %22, align 8
  %38 = getelementptr inbounds %"class.std::__1::__libcpp_compressed_pair_imp", %"class.std::__1::__libcpp_compressed_pair_imp"* %37, i32 0, i32 0
  %39 = getelementptr inbounds %"struct.std::__1::basic_string<char, std::__1::char_traits<char>, std::__1::allocator<char> >::__rep", %"struct.std::__1::basic_string<char, std::__1::char_traits<char>, std::__1::allocator<char> >::__rep"* %38, i32 0, i32 0
  %40 = bitcast %union.anon* %39 to %"struct.std::__1::basic_string<char, std::__1::char_traits<char>, std::__1::allocator<char> >::__short"*
  %41 = getelementptr inbounds %"struct.std::__1::basic_string<char, std::__1::char_traits<char>, std::__1::allocator<char> >::__short", %"struct.std::__1::basic_string<char, std::__1::char_traits<char>, std::__1::allocator<char> >::__short"* %40, i32 0, i32 0
  %42 = bitcast %union.anon.0* %41 to i8*
  %43 = load i8, i8* %42, align 8
  %44 = zext i8 %43 to i32
  %45 = and i32 %44, 1
  %46 = icmp ne i32 %45, 0
  br i1 %46, label %47, label %58

; <label>:47:                                     ; preds = %2
  store %"class.std::__1::basic_string"* %32, %"class.std::__1::basic_string"** %16, align 8
  %48 = load %"class.std::__1::basic_string"*, %"class.std::__1::basic_string"** %16, align 8
  %49 = getelementptr inbounds %"class.std::__1::basic_string", %"class.std::__1::basic_string"* %48, i32 0, i32 0
  store %"class.std::__1::__compressed_pair"* %49, %"class.std::__1::__compressed_pair"** %15, align 8
  %50 = load %"class.std::__1::__compressed_pair"*, %"class.std::__1::__compressed_pair"** %15, align 8
  %51 = bitcast %"class.std::__1::__compressed_pair"* %50 to %"class.std::__1::__libcpp_compressed_pair_imp"*
  store %"class.std::__1::__libcpp_compressed_pair_imp"* %51, %"class.std::__1::__libcpp_compressed_pair_imp"** %14, align 8
  %52 = load %"class.std::__1::__libcpp_compressed_pair_imp"*, %"class.std::__1::__libcpp_compressed_pair_imp"** %14, align 8
  %53 = getelementptr inbounds %"class.std::__1::__libcpp_compressed_pair_imp", %"class.std::__1::__libcpp_compressed_pair_imp"* %52, i32 0, i32 0
  %54 = getelementptr inbounds %"struct.std::__1::basic_string<char, std::__1::char_traits<char>, std::__1::allocator<char> >::__rep", %"struct.std::__1::basic_string<char, std::__1::char_traits<char>, std::__1::allocator<char> >::__rep"* %53, i32 0, i32 0
  %55 = bitcast %union.anon* %54 to %"struct.std::__1::basic_string<char, std::__1::char_traits<char>, std::__1::allocator<char> >::__long"*
  %56 = getelementptr inbounds %"struct.std::__1::basic_string<char, std::__1::char_traits<char>, std::__1::allocator<char> >::__long", %"struct.std::__1::basic_string<char, std::__1::char_traits<char>, std::__1::allocator<char> >::__long"* %55, i32 0, i32 2
  %57 = load i8*, i8** %56, align 8
  br label %71

; <label>:58:                                     ; preds = %2
  store %"class.std::__1::basic_string"* %32, %"class.std::__1::basic_string"** %21, align 8
  %59 = load %"class.std::__1::basic_string"*, %"class.std::__1::basic_string"** %21, align 8
  %60 = getelementptr inbounds %"class.std::__1::basic_string", %"class.std::__1::basic_string"* %59, i32 0, i32 0
  store %"class.std::__1::__compressed_pair"* %60, %"class.std::__1::__compressed_pair"** %20, align 8
  %61 = load %"class.std::__1::__compressed_pair"*, %"class.std::__1::__compressed_pair"** %20, align 8
  %62 = bitcast %"class.std::__1::__compressed_pair"* %61 to %"class.std::__1::__libcpp_compressed_pair_imp"*
  store %"class.std::__1::__libcpp_compressed_pair_imp"* %62, %"class.std::__1::__libcpp_compressed_pair_imp"** %19, align 8
  %63 = load %"class.std::__1::__libcpp_compressed_pair_imp"*, %"class.std::__1::__libcpp_compressed_pair_imp"** %19, align 8
  %64 = getelementptr inbounds %"class.std::__1::__libcpp_compressed_pair_imp", %"class.std::__1::__libcpp_compressed_pair_imp"* %63, i32 0, i32 0
  %65 = getelementptr inbounds %"struct.std::__1::basic_string<char, std::__1::char_traits<char>, std::__1::allocator<char> >::__rep", %"struct.std::__1::basic_string<char, std::__1::char_traits<char>, std::__1::allocator<char> >::__rep"* %64, i32 0, i32 0
  %66 = bitcast %union.anon* %65 to %"struct.std::__1::basic_string<char, std::__1::char_traits<char>, std::__1::allocator<char> >::__short"*
  %67 = getelementptr inbounds %"struct.std::__1::basic_string<char, std::__1::char_traits<char>, std::__1::allocator<char> >::__short", %"struct.std::__1::basic_string<char, std::__1::char_traits<char>, std::__1::allocator<char> >::__short"* %66, i32 0, i32 1
  %68 = getelementptr inbounds [23 x i8], [23 x i8]* %67, i64 0, i64 0
  store i8* %68, i8** %18, align 8
  %69 = load i8*, i8** %18, align 8
  store i8* %69, i8** %17, align 8
  %70 = load i8*, i8** %17, align 8
  br label %71

; <label>:71:                                     ; preds = %47, %58
  %72 = phi i8* [ %57, %47 ], [ %70, %58 ]
  store i8* %72, i8** %13, align 8
  %73 = load i8*, i8** %13, align 8
  %74 = load %"class.std::__1::basic_string"*, %"class.std::__1::basic_string"** %28, align 8
  store %"class.std::__1::basic_string"* %74, %"class.std::__1::basic_string"** %12, align 8
  %75 = load %"class.std::__1::basic_string"*, %"class.std::__1::basic_string"** %12, align 8
  store %"class.std::__1::basic_string"* %75, %"class.std::__1::basic_string"** %11, align 8
  %76 = load %"class.std::__1::basic_string"*, %"class.std::__1::basic_string"** %11, align 8
  %77 = getelementptr inbounds %"class.std::__1::basic_string", %"class.std::__1::basic_string"* %76, i32 0, i32 0
  store %"class.std::__1::__compressed_pair"* %77, %"class.std::__1::__compressed_pair"** %10, align 8
  %78 = load %"class.std::__1::__compressed_pair"*, %"class.std::__1::__compressed_pair"** %10, align 8
  %79 = bitcast %"class.std::__1::__compressed_pair"* %78 to %"class.std::__1::__libcpp_compressed_pair_imp"*
  store %"class.std::__1::__libcpp_compressed_pair_imp"* %79, %"class.std::__1::__libcpp_compressed_pair_imp"** %9, align 8
  %80 = load %"class.std::__1::__libcpp_compressed_pair_imp"*, %"class.std::__1::__libcpp_compressed_pair_imp"** %9, align 8
  %81 = getelementptr inbounds %"class.std::__1::__libcpp_compressed_pair_imp", %"class.std::__1::__libcpp_compressed_pair_imp"* %80, i32 0, i32 0
  %82 = getelementptr inbounds %"struct.std::__1::basic_string<char, std::__1::char_traits<char>, std::__1::allocator<char> >::__rep", %"struct.std::__1::basic_string<char, std::__1::char_traits<char>, std::__1::allocator<char> >::__rep"* %81, i32 0, i32 0
  %83 = bitcast %union.anon* %82 to %"struct.std::__1::basic_string<char, std::__1::char_traits<char>, std::__1::allocator<char> >::__short"*
  %84 = getelementptr inbounds %"struct.std::__1::basic_string<char, std::__1::char_traits<char>, std::__1::allocator<char> >::__short", %"struct.std::__1::basic_string<char, std::__1::char_traits<char>, std::__1::allocator<char> >::__short"* %83, i32 0, i32 0
  %85 = bitcast %union.anon.0* %84 to i8*
  %86 = load i8, i8* %85, align 8
  %87 = zext i8 %86 to i32
  %88 = and i32 %87, 1
  %89 = icmp ne i32 %88, 0
  br i1 %89, label %90, label %101

; <label>:90:                                     ; preds = %71
  store %"class.std::__1::basic_string"* %75, %"class.std::__1::basic_string"** %5, align 8
  %91 = load %"class.std::__1::basic_string"*, %"class.std::__1::basic_string"** %5, align 8
  %92 = getelementptr inbounds %"class.std::__1::basic_string", %"class.std::__1::basic_string"* %91, i32 0, i32 0
  store %"class.std::__1::__compressed_pair"* %92, %"class.std::__1::__compressed_pair"** %4, align 8
  %93 = load %"class.std::__1::__compressed_pair"*, %"class.std::__1::__compressed_pair"** %4, align 8
  %94 = bitcast %"class.std::__1::__compressed_pair"* %93 to %"class.std::__1::__libcpp_compressed_pair_imp"*
  store %"class.std::__1::__libcpp_compressed_pair_imp"* %94, %"class.std::__1::__libcpp_compressed_pair_imp"** %3, align 8
  %95 = load %"class.std::__1::__libcpp_compressed_pair_imp"*, %"class.std::__1::__libcpp_compressed_pair_imp"** %3, align 8
  %96 = getelementptr inbounds %"class.std::__1::__libcpp_compressed_pair_imp", %"class.std::__1::__libcpp_compressed_pair_imp"* %95, i32 0, i32 0
  %97 = getelementptr inbounds %"struct.std::__1::basic_string<char, std::__1::char_traits<char>, std::__1::allocator<char> >::__rep", %"struct.std::__1::basic_string<char, std::__1::char_traits<char>, std::__1::allocator<char> >::__rep"* %96, i32 0, i32 0
  %98 = bitcast %union.anon* %97 to %"struct.std::__1::basic_string<char, std::__1::char_traits<char>, std::__1::allocator<char> >::__long"*
  %99 = getelementptr inbounds %"struct.std::__1::basic_string<char, std::__1::char_traits<char>, std::__1::allocator<char> >::__long", %"struct.std::__1::basic_string<char, std::__1::char_traits<char>, std::__1::allocator<char> >::__long"* %98, i32 0, i32 1
  %100 = load i64, i64* %99, align 8
  br label %116

; <label>:101:                                    ; preds = %71
  store %"class.std::__1::basic_string"* %75, %"class.std::__1::basic_string"** %8, align 8
  %102 = load %"class.std::__1::basic_string"*, %"class.std::__1::basic_string"** %8, align 8
  %103 = getelementptr inbounds %"class.std::__1::basic_string", %"class.std::__1::basic_string"* %102, i32 0, i32 0
  store %"class.std::__1::__compressed_pair"* %103, %"class.std::__1::__compressed_pair"** %7, align 8
  %104 = load %"class.std::__1::__compressed_pair"*, %"class.std::__1::__compressed_pair"** %7, align 8
  %105 = bitcast %"class.std::__1::__compressed_pair"* %104 to %"class.std::__1::__libcpp_compressed_pair_imp"*
  store %"class.std::__1::__libcpp_compressed_pair_imp"* %105, %"class.std::__1::__libcpp_compressed_pair_imp"** %6, align 8
  %106 = load %"class.std::__1::__libcpp_compressed_pair_imp"*, %"class.std::__1::__libcpp_compressed_pair_imp"** %6, align 8
  %107 = getelementptr inbounds %"class.std::__1::__libcpp_compressed_pair_imp", %"class.std::__1::__libcpp_compressed_pair_imp"* %106, i32 0, i32 0
  %108 = getelementptr inbounds %"struct.std::__1::basic_string<char, std::__1::char_traits<char>, std::__1::allocator<char> >::__rep", %"struct.std::__1::basic_string<char, std::__1::char_traits<char>, std::__1::allocator<char> >::__rep"* %107, i32 0, i32 0
  %109 = bitcast %union.anon* %108 to %"struct.std::__1::basic_string<char, std::__1::char_traits<char>, std::__1::allocator<char> >::__short"*
  %110 = getelementptr inbounds %"struct.std::__1::basic_string<char, std::__1::char_traits<char>, std::__1::allocator<char> >::__short", %"struct.std::__1::basic_string<char, std::__1::char_traits<char>, std::__1::allocator<char> >::__short"* %109, i32 0, i32 0
  %111 = bitcast %union.anon.0* %110 to i8*
  %112 = load i8, i8* %111, align 8
  %113 = zext i8 %112 to i32
  %114 = ashr i32 %113, 1
  %115 = sext i32 %114 to i64
  br label %116

; <label>:116:                                    ; preds = %90, %101
  %117 = phi i64 [ %100, %90 ], [ %115, %101 ]
  %118 = call dereferenceable(160) %"class.std::__1::basic_ostream"* @_ZNSt3__124__put_character_sequenceIcNS_11char_traitsIcEEEERNS_13basic_ostreamIT_T0_EES7_PKS4_m(%"class.std::__1::basic_ostream"* dereferenceable(160) %29, i8* %73, i64 %117)
  ret %"class.std::__1::basic_ostream"* %118
}

declare i64 @_ZNSt3__14stolERKNS_12basic_stringIcNS_11char_traitsIcEENS_9allocatorIcEEEEPmi(%"class.std::__1::basic_string"* dereferenceable(24), i64*, i32) #1

declare dereferenceable(24) %"class.std::__1::basic_string"* @_ZNSt3__112basic_stringIcNS_11char_traitsIcEENS_9allocatorIcEEEaSERKS5_(%"class.std::__1::basic_string"*, %"class.std::__1::basic_string"* dereferenceable(24)) #1

declare void @_ZNSt3__112basic_stringIcNS_11char_traitsIcEENS_9allocatorIcEEEC1ERKS5_(%"class.std::__1::basic_string"*, %"class.std::__1::basic_string"* dereferenceable(24)) unnamed_addr #1

; Function Attrs: noinline ssp uwtable
define linkonce_odr dereferenceable(160) %"class.std::__1::basic_ostream"* @_ZNSt3__1lsINS_11char_traitsIcEEEERNS_13basic_ostreamIcT_EES6_PKc(%"class.std::__1::basic_ostream"* dereferenceable(160), i8*) #0 {
  %3 = alloca %"class.std::__1::basic_ostream"*, align 8
  %4 = alloca i8*, align 8
  store %"class.std::__1::basic_ostream"* %0, %"class.std::__1::basic_ostream"** %3, align 8
  store i8* %1, i8** %4, align 8
  %5 = load %"class.std::__1::basic_ostream"*, %"class.std::__1::basic_ostream"** %3, align 8
  %6 = load i8*, i8** %4, align 8
  %7 = load i8*, i8** %4, align 8
  %8 = call i64 @_ZNSt3__111char_traitsIcE6lengthEPKc(i8* %7)
  %9 = call dereferenceable(160) %"class.std::__1::basic_ostream"* @_ZNSt3__124__put_character_sequenceIcNS_11char_traitsIcEEEERNS_13basic_ostreamIT_T0_EES7_PKS4_m(%"class.std::__1::basic_ostream"* dereferenceable(160) %5, i8* %6, i64 %8)
  ret %"class.std::__1::basic_ostream"* %9
}

; Function Attrs: noinline ssp uwtable
define void @_Z10activationNSt3__112basic_stringIcNS_11char_traitsIcEENS_9allocatorIcEEEES5_S5_(%"class.std::__1::basic_string"*, %"class.std::__1::basic_string"*, %"class.std::__1::basic_string"*) #0 personality i8* bitcast (i32 (...)* @__gxx_personality_v0 to i8*) {
  %4 = alloca %"class.std::__1::basic_ostream"*, align 8
  %5 = alloca %"class.std::__1::basic_ostream"* (%"class.std::__1::basic_ostream"*)*, align 8
  %6 = alloca %"class.std::__1::basic_ostream"*, align 8
  %7 = alloca %"class.std::__1::basic_ostream"* (%"class.std::__1::basic_ostream"*)*, align 8
  %8 = alloca %"class.std::__1::basic_ostream"*, align 8
  %9 = alloca %"class.std::__1::basic_ostream"* (%"class.std::__1::basic_ostream"*)*, align 8
  %10 = alloca %"class.std::__1::basic_string", align 8
  %11 = alloca %"class.std::__1::basic_string", align 8
  %12 = alloca i8*
  %13 = alloca i32
  %14 = alloca %"class.std::__1::basic_string", align 8
  call void @_ZNSt3__112basic_stringIcNS_11char_traitsIcEENS_9allocatorIcEEEC1ERKS5_(%"class.std::__1::basic_string"* %10, %"class.std::__1::basic_string"* dereferenceable(24) %0)
  invoke void @_ZNSt3__112basic_stringIcNS_11char_traitsIcEENS_9allocatorIcEEEC1ERKS5_(%"class.std::__1::basic_string"* %11, %"class.std::__1::basic_string"* dereferenceable(24) %1)
          to label %15 unwind label %26

; <label>:15:                                     ; preds = %3
  invoke void @_ZNSt3__112basic_stringIcNS_11char_traitsIcEENS_9allocatorIcEEEC1ERKS5_(%"class.std::__1::basic_string"* %14, %"class.std::__1::basic_string"* dereferenceable(24) %2)
          to label %16 unwind label %30

; <label>:16:                                     ; preds = %15
  %17 = invoke zeroext i1 @_Z12checkLicenseNSt3__112basic_stringIcNS_11char_traitsIcEENS_9allocatorIcEEEES5_S5_(%"class.std::__1::basic_string"* %10, %"class.std::__1::basic_string"* %11, %"class.std::__1::basic_string"* %14)
          to label %18 unwind label %34

; <label>:18:                                     ; preds = %16
  invoke void @_ZNSt3__112basic_stringIcNS_11char_traitsIcEENS_9allocatorIcEEED1Ev(%"class.std::__1::basic_string"* %14)
          to label %19 unwind label %30

; <label>:19:                                     ; preds = %18
  invoke void @_ZNSt3__112basic_stringIcNS_11char_traitsIcEENS_9allocatorIcEEED1Ev(%"class.std::__1::basic_string"* %11)
          to label %20 unwind label %26

; <label>:20:                                     ; preds = %19
  call void @_ZNSt3__112basic_stringIcNS_11char_traitsIcEENS_9allocatorIcEEED1Ev(%"class.std::__1::basic_string"* %10)
  br i1 %17, label %21, label %43

; <label>:21:                                     ; preds = %20
  %22 = call dereferenceable(160) %"class.std::__1::basic_ostream"* @_ZNSt3__1lsINS_11char_traitsIcEEEERNS_13basic_ostreamIcT_EES6_PKc(%"class.std::__1::basic_ostream"* dereferenceable(160) @_ZNSt3__14coutE, i8* getelementptr inbounds ([22 x i8], [22 x i8]* @.str.4, i32 0, i32 0))
  store %"class.std::__1::basic_ostream"* %22, %"class.std::__1::basic_ostream"** %8, align 8
  store %"class.std::__1::basic_ostream"* (%"class.std::__1::basic_ostream"*)* @_ZNSt3__14endlIcNS_11char_traitsIcEEEERNS_13basic_ostreamIT_T0_EES7_, %"class.std::__1::basic_ostream"* (%"class.std::__1::basic_ostream"*)** %9, align 8
  %23 = load %"class.std::__1::basic_ostream"*, %"class.std::__1::basic_ostream"** %8, align 8
  %24 = load %"class.std::__1::basic_ostream"* (%"class.std::__1::basic_ostream"*)*, %"class.std::__1::basic_ostream"* (%"class.std::__1::basic_ostream"*)** %9, align 8
  %25 = call dereferenceable(160) %"class.std::__1::basic_ostream"* %24(%"class.std::__1::basic_ostream"* dereferenceable(160) %23)
  br label %52

; <label>:26:                                     ; preds = %19, %3
  %27 = landingpad { i8*, i32 }
          cleanup
  %28 = extractvalue { i8*, i32 } %27, 0
  store i8* %28, i8** %12, align 8
  %29 = extractvalue { i8*, i32 } %27, 1
  store i32 %29, i32* %13, align 4
  br label %41

; <label>:30:                                     ; preds = %18, %15
  %31 = landingpad { i8*, i32 }
          cleanup
  %32 = extractvalue { i8*, i32 } %31, 0
  store i8* %32, i8** %12, align 8
  %33 = extractvalue { i8*, i32 } %31, 1
  store i32 %33, i32* %13, align 4
  br label %39

; <label>:34:                                     ; preds = %16
  %35 = landingpad { i8*, i32 }
          cleanup
  %36 = extractvalue { i8*, i32 } %35, 0
  store i8* %36, i8** %12, align 8
  %37 = extractvalue { i8*, i32 } %35, 1
  store i32 %37, i32* %13, align 4
  invoke void @_ZNSt3__112basic_stringIcNS_11char_traitsIcEENS_9allocatorIcEEED1Ev(%"class.std::__1::basic_string"* %14)
          to label %38 unwind label %58

; <label>:38:                                     ; preds = %34
  br label %39

; <label>:39:                                     ; preds = %38, %30
  invoke void @_ZNSt3__112basic_stringIcNS_11char_traitsIcEENS_9allocatorIcEEED1Ev(%"class.std::__1::basic_string"* %11)
          to label %40 unwind label %58

; <label>:40:                                     ; preds = %39
  br label %41

; <label>:41:                                     ; preds = %40, %26
  invoke void @_ZNSt3__112basic_stringIcNS_11char_traitsIcEENS_9allocatorIcEEED1Ev(%"class.std::__1::basic_string"* %10)
          to label %42 unwind label %58

; <label>:42:                                     ; preds = %41
  br label %53

; <label>:43:                                     ; preds = %20
  %44 = call dereferenceable(160) %"class.std::__1::basic_ostream"* @_ZNSt3__1lsINS_11char_traitsIcEEEERNS_13basic_ostreamIcT_EES6_PKc(%"class.std::__1::basic_ostream"* dereferenceable(160) @_ZNSt3__14coutE, i8* getelementptr inbounds ([33 x i8], [33 x i8]* @.str.5, i32 0, i32 0))
  store %"class.std::__1::basic_ostream"* %44, %"class.std::__1::basic_ostream"** %6, align 8
  store %"class.std::__1::basic_ostream"* (%"class.std::__1::basic_ostream"*)* @_ZNSt3__14endlIcNS_11char_traitsIcEEEERNS_13basic_ostreamIT_T0_EES7_, %"class.std::__1::basic_ostream"* (%"class.std::__1::basic_ostream"*)** %7, align 8
  %45 = load %"class.std::__1::basic_ostream"*, %"class.std::__1::basic_ostream"** %6, align 8
  %46 = load %"class.std::__1::basic_ostream"* (%"class.std::__1::basic_ostream"*)*, %"class.std::__1::basic_ostream"* (%"class.std::__1::basic_ostream"*)** %7, align 8
  %47 = call dereferenceable(160) %"class.std::__1::basic_ostream"* %46(%"class.std::__1::basic_ostream"* dereferenceable(160) %45)
  %48 = call dereferenceable(160) %"class.std::__1::basic_ostream"* @_ZNSt3__1lsINS_11char_traitsIcEEEERNS_13basic_ostreamIcT_EES6_PKc(%"class.std::__1::basic_ostream"* dereferenceable(160) @_ZNSt3__14coutE, i8* getelementptr inbounds ([11 x i8], [11 x i8]* @.str.6, i32 0, i32 0))
  store %"class.std::__1::basic_ostream"* %48, %"class.std::__1::basic_ostream"** %4, align 8
  store %"class.std::__1::basic_ostream"* (%"class.std::__1::basic_ostream"*)* @_ZNSt3__14endlIcNS_11char_traitsIcEEEERNS_13basic_ostreamIT_T0_EES7_, %"class.std::__1::basic_ostream"* (%"class.std::__1::basic_ostream"*)** %5, align 8
  %49 = load %"class.std::__1::basic_ostream"*, %"class.std::__1::basic_ostream"** %4, align 8
  %50 = load %"class.std::__1::basic_ostream"* (%"class.std::__1::basic_ostream"*)*, %"class.std::__1::basic_ostream"* (%"class.std::__1::basic_ostream"*)** %5, align 8
  %51 = call dereferenceable(160) %"class.std::__1::basic_ostream"* %50(%"class.std::__1::basic_ostream"* dereferenceable(160) %49)
  call void @exit(i32 0) #14
  unreachable

; <label>:52:                                     ; preds = %21
  ret void

; <label>:53:                                     ; preds = %42
  %54 = load i8*, i8** %12, align 8
  %55 = load i32, i32* %13, align 4
  %56 = insertvalue { i8*, i32 } undef, i8* %54, 0
  %57 = insertvalue { i8*, i32 } %56, i32 %55, 1
  resume { i8*, i32 } %57

; <label>:58:                                     ; preds = %41, %39, %34
  %59 = landingpad { i8*, i32 }
          catch i8* null
  %60 = extractvalue { i8*, i32 } %59, 0
  call void @__clang_call_terminate(i8* %60) #13
  unreachable
}

; Function Attrs: noreturn
declare void @exit(i32) #5

; Function Attrs: noinline norecurse ssp uwtable
define i32 @main() #6 personality i8* bitcast (i32 (...)* @__gxx_personality_v0 to i8*) {
  %1 = alloca %"class.std::__1::basic_ostream"*, align 8
  %2 = alloca %"class.std::__1::basic_ostream"* (%"class.std::__1::basic_ostream"*)*, align 8
  %3 = alloca %"class.std::__1::basic_ostream"*, align 8
  %4 = alloca %"class.std::__1::basic_ostream"* (%"class.std::__1::basic_ostream"*)*, align 8
  %5 = alloca %"class.std::__1::allocator.3"*, align 8
  %6 = alloca i32*, align 8
  %7 = alloca i32*, align 8
  %8 = alloca i32*, align 8
  %9 = alloca %"class.std::__1::__libcpp_compressed_pair_imp.2"*, align 8
  %10 = alloca %"class.std::__1::__compressed_pair.1"*, align 8
  %11 = alloca %"class.std::__1::__vector_base"*, align 8
  %12 = alloca %"class.std::__1::__libcpp_compressed_pair_imp.2"*, align 8
  %13 = alloca %"class.std::__1::__compressed_pair.1"*, align 8
  %14 = alloca %"class.std::__1::__vector_base"*, align 8
  %15 = alloca i32*
  %16 = alloca i32*
  %17 = alloca %"class.std::__1::vector"*
  %18 = alloca %"class.std::__1::vector"*, align 8
  %19 = alloca i32*, align 8
  %20 = alloca %"struct.std::__1::vector<int, std::__1::allocator<int> >::__RAII_IncreaseAnnotator", align 1
  %21 = alloca i32
  %22 = alloca %"class.std::__1::allocator.3"*, align 8
  %23 = alloca i32*, align 8
  %24 = alloca i32*, align 8
  %25 = alloca i32*, align 8
  %26 = alloca %"class.std::__1::__libcpp_compressed_pair_imp.2"*, align 8
  %27 = alloca %"class.std::__1::__compressed_pair.1"*, align 8
  %28 = alloca %"class.std::__1::__vector_base"*, align 8
  %29 = alloca %"class.std::__1::__libcpp_compressed_pair_imp.2"*, align 8
  %30 = alloca %"class.std::__1::__compressed_pair.1"*, align 8
  %31 = alloca %"class.std::__1::__vector_base"*, align 8
  %32 = alloca i32*
  %33 = alloca i32*
  %34 = alloca %"class.std::__1::vector"*
  %35 = alloca %"class.std::__1::vector"*, align 8
  %36 = alloca i32*, align 8
  %37 = alloca %"struct.std::__1::vector<int, std::__1::allocator<int> >::__RAII_IncreaseAnnotator", align 1
  %38 = alloca i32
  %39 = alloca %"class.std::__1::allocator.3"*, align 8
  %40 = alloca i32*, align 8
  %41 = alloca i32*, align 8
  %42 = alloca i32*, align 8
  %43 = alloca %"class.std::__1::__libcpp_compressed_pair_imp.2"*, align 8
  %44 = alloca %"class.std::__1::__compressed_pair.1"*, align 8
  %45 = alloca %"class.std::__1::__vector_base"*, align 8
  %46 = alloca %"class.std::__1::__libcpp_compressed_pair_imp.2"*, align 8
  %47 = alloca %"class.std::__1::__compressed_pair.1"*, align 8
  %48 = alloca %"class.std::__1::__vector_base"*, align 8
  %49 = alloca i32*
  %50 = alloca i32*
  %51 = alloca %"class.std::__1::vector"*
  %52 = alloca %"class.std::__1::vector"*, align 8
  %53 = alloca i32*, align 8
  %54 = alloca %"struct.std::__1::vector<int, std::__1::allocator<int> >::__RAII_IncreaseAnnotator", align 1
  %55 = alloca i32
  %56 = alloca %"struct.std::__1::nullptr_t"*, align 8
  %57 = alloca i64, align 8
  %58 = alloca %"struct.std::__1::nullptr_t"*, align 8
  %59 = alloca i64, align 8
  %60 = alloca %"struct.std::__1::nullptr_t", align 8
  %61 = alloca %"struct.std::__1::nullptr_t"*, align 8
  %62 = alloca %"struct.std::__1::nullptr_t"*, align 8
  %63 = alloca i64, align 8
  %64 = alloca %"struct.std::__1::nullptr_t"*, align 8
  %65 = alloca i64, align 8
  %66 = alloca %"struct.std::__1::nullptr_t", align 8
  %67 = alloca %"struct.std::__1::nullptr_t"*, align 8
  %68 = alloca %"struct.std::__1::nullptr_t"*, align 8
  %69 = alloca i64, align 8
  %70 = alloca %"struct.std::__1::nullptr_t"*, align 8
  %71 = alloca i64, align 8
  %72 = alloca %"struct.std::__1::nullptr_t", align 8
  %73 = alloca %"struct.std::__1::nullptr_t"*, align 8
  %74 = alloca i32**, align 8
  %75 = alloca %"class.std::__1::allocator.3"*, align 8
  %76 = alloca %"class.std::__1::__libcpp_compressed_pair_imp.2"*, align 8
  %77 = alloca i32*, align 8
  %78 = alloca i32**, align 8
  %79 = alloca %"class.std::__1::__compressed_pair.1"*, align 8
  %80 = alloca i32*, align 8
  %81 = alloca %"class.std::__1::__compressed_pair.1"*, align 8
  %82 = alloca i32*, align 8
  %83 = alloca %"class.std::__1::__vector_base_common"*, align 8
  %84 = alloca %"class.std::__1::__vector_base"*, align 8
  %85 = alloca %"struct.std::__1::nullptr_t", align 8
  %86 = alloca %"struct.std::__1::nullptr_t", align 8
  %87 = alloca %"struct.std::__1::nullptr_t", align 8
  %88 = alloca %"class.std::__1::vector"*, align 8
  %89 = alloca %"class.std::__1::vector"*, align 8
  %90 = alloca %"class.std::__1::basic_ostream"*, align 8
  %91 = alloca %"class.std::__1::basic_ostream"* (%"class.std::__1::basic_ostream"*)*, align 8
  %92 = alloca %"class.std::__1::basic_string"*, align 8
  %93 = alloca i8*, align 8
  %94 = alloca %"class.std::__1::basic_ostream"*, align 8
  %95 = alloca %"class.std::__1::basic_ostream"* (%"class.std::__1::basic_ostream"*)*, align 8
  %96 = alloca %"class.std::__1::__libcpp_compressed_pair_imp"*, align 8
  %97 = alloca %"class.std::__1::__compressed_pair"*, align 8
  %98 = alloca %"class.std::__1::basic_string"*, align 8
  %99 = alloca [3 x i64]*, align 8
  %100 = alloca i32, align 4
  %101 = alloca %"class.std::__1::allocator"*, align 8
  %102 = alloca %"class.std::__1::__libcpp_compressed_pair_imp"*, align 8
  %103 = alloca %"class.std::__1::__compressed_pair"*, align 8
  %104 = alloca %"class.std::__1::__compressed_pair"*, align 8
  %105 = alloca %"class.std::__1::basic_string"*, align 8
  %106 = alloca %"class.std::__1::basic_string"*, align 8
  %107 = alloca %"class.std::__1::__libcpp_compressed_pair_imp"*, align 8
  %108 = alloca %"class.std::__1::__compressed_pair"*, align 8
  %109 = alloca %"class.std::__1::basic_string"*, align 8
  %110 = alloca [3 x i64]*, align 8
  %111 = alloca i32, align 4
  %112 = alloca %"class.std::__1::allocator"*, align 8
  %113 = alloca %"class.std::__1::__libcpp_compressed_pair_imp"*, align 8
  %114 = alloca %"class.std::__1::__compressed_pair"*, align 8
  %115 = alloca %"class.std::__1::__compressed_pair"*, align 8
  %116 = alloca %"class.std::__1::basic_string"*, align 8
  %117 = alloca %"class.std::__1::basic_string"*, align 8
  %118 = alloca %"class.std::__1::__libcpp_compressed_pair_imp"*, align 8
  %119 = alloca %"class.std::__1::__compressed_pair"*, align 8
  %120 = alloca %"class.std::__1::basic_string"*, align 8
  %121 = alloca [3 x i64]*, align 8
  %122 = alloca i32, align 4
  %123 = alloca %"class.std::__1::allocator"*, align 8
  %124 = alloca %"class.std::__1::__libcpp_compressed_pair_imp"*, align 8
  %125 = alloca %"class.std::__1::__compressed_pair"*, align 8
  %126 = alloca %"class.std::__1::__compressed_pair"*, align 8
  %127 = alloca %"class.std::__1::basic_string"*, align 8
  %128 = alloca %"class.std::__1::basic_string"*, align 8
  %129 = alloca i32, align 4
  %130 = alloca %"class.std::__1::basic_string", align 8
  %131 = alloca %"class.std::__1::basic_string", align 8
  %132 = alloca i8*
  %133 = alloca i32
  %134 = alloca %"class.std::__1::basic_string", align 8
  %135 = alloca %"class.std::__1::basic_string", align 8
  %136 = alloca %"class.std::__1::basic_string", align 8
  %137 = alloca %"class.std::__1::basic_string", align 8
  %138 = alloca %"class.std::__1::vector", align 8
  %139 = alloca i32, align 4
  %140 = alloca i32, align 4
  %141 = alloca i32, align 4
  %142 = alloca %class.Network, align 8
  %143 = alloca %"class.boost::numeric::ublas::matrix", align 8
  %144 = alloca %"class.boost::numeric::ublas::matrix", align 8
  %145 = alloca i32, align 4
  %146 = alloca %"class.boost::numeric::ublas::vector", align 8
  %147 = alloca double, align 8
  %148 = alloca %"class.boost::numeric::ublas::vector", align 8
  %149 = alloca double, align 8
  store i32 0, i32* %129, align 4
  store %"class.std::__1::basic_string"* %130, %"class.std::__1::basic_string"** %128, align 8
  %150 = load %"class.std::__1::basic_string"*, %"class.std::__1::basic_string"** %128, align 8
  store %"class.std::__1::basic_string"* %150, %"class.std::__1::basic_string"** %127, align 8
  %151 = load %"class.std::__1::basic_string"*, %"class.std::__1::basic_string"** %127, align 8
  %152 = bitcast %"class.std::__1::basic_string"* %151 to %"class.std::__1::__basic_string_common"*
  %153 = getelementptr inbounds %"class.std::__1::basic_string", %"class.std::__1::basic_string"* %151, i32 0, i32 0
  store %"class.std::__1::__compressed_pair"* %153, %"class.std::__1::__compressed_pair"** %126, align 8
  %154 = load %"class.std::__1::__compressed_pair"*, %"class.std::__1::__compressed_pair"** %126, align 8
  store %"class.std::__1::__compressed_pair"* %154, %"class.std::__1::__compressed_pair"** %125, align 8
  %155 = load %"class.std::__1::__compressed_pair"*, %"class.std::__1::__compressed_pair"** %125, align 8
  %156 = bitcast %"class.std::__1::__compressed_pair"* %155 to %"class.std::__1::__libcpp_compressed_pair_imp"*
  store %"class.std::__1::__libcpp_compressed_pair_imp"* %156, %"class.std::__1::__libcpp_compressed_pair_imp"** %124, align 8
  %157 = load %"class.std::__1::__libcpp_compressed_pair_imp"*, %"class.std::__1::__libcpp_compressed_pair_imp"** %124, align 8
  %158 = bitcast %"class.std::__1::__libcpp_compressed_pair_imp"* %157 to %"class.std::__1::allocator"*
  store %"class.std::__1::allocator"* %158, %"class.std::__1::allocator"** %123, align 8
  %159 = load %"class.std::__1::allocator"*, %"class.std::__1::allocator"** %123, align 8
  %160 = getelementptr inbounds %"class.std::__1::__libcpp_compressed_pair_imp", %"class.std::__1::__libcpp_compressed_pair_imp"* %157, i32 0, i32 0
  %161 = bitcast %"struct.std::__1::basic_string<char, std::__1::char_traits<char>, std::__1::allocator<char> >::__rep"* %160 to i8*
  call void @llvm.memset.p0i8.i64(i8* %161, i8 0, i64 24, i32 8, i1 false) #12
  store %"class.std::__1::basic_string"* %151, %"class.std::__1::basic_string"** %120, align 8
  %162 = load %"class.std::__1::basic_string"*, %"class.std::__1::basic_string"** %120, align 8
  %163 = getelementptr inbounds %"class.std::__1::basic_string", %"class.std::__1::basic_string"* %162, i32 0, i32 0
  store %"class.std::__1::__compressed_pair"* %163, %"class.std::__1::__compressed_pair"** %119, align 8
  %164 = load %"class.std::__1::__compressed_pair"*, %"class.std::__1::__compressed_pair"** %119, align 8
  %165 = bitcast %"class.std::__1::__compressed_pair"* %164 to %"class.std::__1::__libcpp_compressed_pair_imp"*
  store %"class.std::__1::__libcpp_compressed_pair_imp"* %165, %"class.std::__1::__libcpp_compressed_pair_imp"** %118, align 8
  %166 = load %"class.std::__1::__libcpp_compressed_pair_imp"*, %"class.std::__1::__libcpp_compressed_pair_imp"** %118, align 8
  %167 = getelementptr inbounds %"class.std::__1::__libcpp_compressed_pair_imp", %"class.std::__1::__libcpp_compressed_pair_imp"* %166, i32 0, i32 0
  %168 = getelementptr inbounds %"struct.std::__1::basic_string<char, std::__1::char_traits<char>, std::__1::allocator<char> >::__rep", %"struct.std::__1::basic_string<char, std::__1::char_traits<char>, std::__1::allocator<char> >::__rep"* %167, i32 0, i32 0
  %169 = bitcast %union.anon* %168 to %"struct.std::__1::basic_string<char, std::__1::char_traits<char>, std::__1::allocator<char> >::__raw"*
  %170 = getelementptr inbounds %"struct.std::__1::basic_string<char, std::__1::char_traits<char>, std::__1::allocator<char> >::__raw", %"struct.std::__1::basic_string<char, std::__1::char_traits<char>, std::__1::allocator<char> >::__raw"* %169, i32 0, i32 0
  store [3 x i64]* %170, [3 x i64]** %121, align 8
  store i32 0, i32* %122, align 4
  br label %171

; <label>:171:                                    ; preds = %174, %0
  %172 = load i32, i32* %122, align 4
  %173 = icmp ult i32 %172, 3
  br i1 %173, label %174, label %181

; <label>:174:                                    ; preds = %171
  %175 = load [3 x i64]*, [3 x i64]** %121, align 8
  %176 = load i32, i32* %122, align 4
  %177 = zext i32 %176 to i64
  %178 = getelementptr inbounds [3 x i64], [3 x i64]* %175, i64 0, i64 %177
  store i64 0, i64* %178, align 8
  %179 = load i32, i32* %122, align 4
  %180 = add i32 %179, 1
  store i32 %180, i32* %122, align 4
  br label %171

; <label>:181:                                    ; preds = %171
  store %"class.std::__1::basic_string"* %131, %"class.std::__1::basic_string"** %117, align 8
  %182 = load %"class.std::__1::basic_string"*, %"class.std::__1::basic_string"** %117, align 8
  store %"class.std::__1::basic_string"* %182, %"class.std::__1::basic_string"** %116, align 8
  %183 = load %"class.std::__1::basic_string"*, %"class.std::__1::basic_string"** %116, align 8
  %184 = bitcast %"class.std::__1::basic_string"* %183 to %"class.std::__1::__basic_string_common"*
  %185 = getelementptr inbounds %"class.std::__1::basic_string", %"class.std::__1::basic_string"* %183, i32 0, i32 0
  store %"class.std::__1::__compressed_pair"* %185, %"class.std::__1::__compressed_pair"** %115, align 8
  %186 = load %"class.std::__1::__compressed_pair"*, %"class.std::__1::__compressed_pair"** %115, align 8
  store %"class.std::__1::__compressed_pair"* %186, %"class.std::__1::__compressed_pair"** %114, align 8
  %187 = load %"class.std::__1::__compressed_pair"*, %"class.std::__1::__compressed_pair"** %114, align 8
  %188 = bitcast %"class.std::__1::__compressed_pair"* %187 to %"class.std::__1::__libcpp_compressed_pair_imp"*
  store %"class.std::__1::__libcpp_compressed_pair_imp"* %188, %"class.std::__1::__libcpp_compressed_pair_imp"** %113, align 8
  %189 = load %"class.std::__1::__libcpp_compressed_pair_imp"*, %"class.std::__1::__libcpp_compressed_pair_imp"** %113, align 8
  %190 = bitcast %"class.std::__1::__libcpp_compressed_pair_imp"* %189 to %"class.std::__1::allocator"*
  store %"class.std::__1::allocator"* %190, %"class.std::__1::allocator"** %112, align 8
  %191 = load %"class.std::__1::allocator"*, %"class.std::__1::allocator"** %112, align 8
  %192 = getelementptr inbounds %"class.std::__1::__libcpp_compressed_pair_imp", %"class.std::__1::__libcpp_compressed_pair_imp"* %189, i32 0, i32 0
  %193 = bitcast %"struct.std::__1::basic_string<char, std::__1::char_traits<char>, std::__1::allocator<char> >::__rep"* %192 to i8*
  call void @llvm.memset.p0i8.i64(i8* %193, i8 0, i64 24, i32 8, i1 false) #12
  store %"class.std::__1::basic_string"* %183, %"class.std::__1::basic_string"** %109, align 8
  %194 = load %"class.std::__1::basic_string"*, %"class.std::__1::basic_string"** %109, align 8
  %195 = getelementptr inbounds %"class.std::__1::basic_string", %"class.std::__1::basic_string"* %194, i32 0, i32 0
  store %"class.std::__1::__compressed_pair"* %195, %"class.std::__1::__compressed_pair"** %108, align 8
  %196 = load %"class.std::__1::__compressed_pair"*, %"class.std::__1::__compressed_pair"** %108, align 8
  %197 = bitcast %"class.std::__1::__compressed_pair"* %196 to %"class.std::__1::__libcpp_compressed_pair_imp"*
  store %"class.std::__1::__libcpp_compressed_pair_imp"* %197, %"class.std::__1::__libcpp_compressed_pair_imp"** %107, align 8
  %198 = load %"class.std::__1::__libcpp_compressed_pair_imp"*, %"class.std::__1::__libcpp_compressed_pair_imp"** %107, align 8
  %199 = getelementptr inbounds %"class.std::__1::__libcpp_compressed_pair_imp", %"class.std::__1::__libcpp_compressed_pair_imp"* %198, i32 0, i32 0
  %200 = getelementptr inbounds %"struct.std::__1::basic_string<char, std::__1::char_traits<char>, std::__1::allocator<char> >::__rep", %"struct.std::__1::basic_string<char, std::__1::char_traits<char>, std::__1::allocator<char> >::__rep"* %199, i32 0, i32 0
  %201 = bitcast %union.anon* %200 to %"struct.std::__1::basic_string<char, std::__1::char_traits<char>, std::__1::allocator<char> >::__raw"*
  %202 = getelementptr inbounds %"struct.std::__1::basic_string<char, std::__1::char_traits<char>, std::__1::allocator<char> >::__raw", %"struct.std::__1::basic_string<char, std::__1::char_traits<char>, std::__1::allocator<char> >::__raw"* %201, i32 0, i32 0
  store [3 x i64]* %202, [3 x i64]** %110, align 8
  store i32 0, i32* %111, align 4
  br label %203

; <label>:203:                                    ; preds = %206, %181
  %204 = load i32, i32* %111, align 4
  %205 = icmp ult i32 %204, 3
  br i1 %205, label %206, label %213

; <label>:206:                                    ; preds = %203
  %207 = load [3 x i64]*, [3 x i64]** %110, align 8
  %208 = load i32, i32* %111, align 4
  %209 = zext i32 %208 to i64
  %210 = getelementptr inbounds [3 x i64], [3 x i64]* %207, i64 0, i64 %209
  store i64 0, i64* %210, align 8
  %211 = load i32, i32* %111, align 4
  %212 = add i32 %211, 1
  store i32 %212, i32* %111, align 4
  br label %203

; <label>:213:                                    ; preds = %203
  br label %214

; <label>:214:                                    ; preds = %213
  store %"class.std::__1::basic_string"* %134, %"class.std::__1::basic_string"** %106, align 8
  %215 = load %"class.std::__1::basic_string"*, %"class.std::__1::basic_string"** %106, align 8
  store %"class.std::__1::basic_string"* %215, %"class.std::__1::basic_string"** %105, align 8
  %216 = load %"class.std::__1::basic_string"*, %"class.std::__1::basic_string"** %105, align 8
  %217 = bitcast %"class.std::__1::basic_string"* %216 to %"class.std::__1::__basic_string_common"*
  %218 = getelementptr inbounds %"class.std::__1::basic_string", %"class.std::__1::basic_string"* %216, i32 0, i32 0
  store %"class.std::__1::__compressed_pair"* %218, %"class.std::__1::__compressed_pair"** %104, align 8
  %219 = load %"class.std::__1::__compressed_pair"*, %"class.std::__1::__compressed_pair"** %104, align 8
  store %"class.std::__1::__compressed_pair"* %219, %"class.std::__1::__compressed_pair"** %103, align 8
  %220 = load %"class.std::__1::__compressed_pair"*, %"class.std::__1::__compressed_pair"** %103, align 8
  %221 = bitcast %"class.std::__1::__compressed_pair"* %220 to %"class.std::__1::__libcpp_compressed_pair_imp"*
  store %"class.std::__1::__libcpp_compressed_pair_imp"* %221, %"class.std::__1::__libcpp_compressed_pair_imp"** %102, align 8
  %222 = load %"class.std::__1::__libcpp_compressed_pair_imp"*, %"class.std::__1::__libcpp_compressed_pair_imp"** %102, align 8
  %223 = bitcast %"class.std::__1::__libcpp_compressed_pair_imp"* %222 to %"class.std::__1::allocator"*
  store %"class.std::__1::allocator"* %223, %"class.std::__1::allocator"** %101, align 8
  %224 = load %"class.std::__1::allocator"*, %"class.std::__1::allocator"** %101, align 8
  %225 = getelementptr inbounds %"class.std::__1::__libcpp_compressed_pair_imp", %"class.std::__1::__libcpp_compressed_pair_imp"* %222, i32 0, i32 0
  %226 = bitcast %"struct.std::__1::basic_string<char, std::__1::char_traits<char>, std::__1::allocator<char> >::__rep"* %225 to i8*
  call void @llvm.memset.p0i8.i64(i8* %226, i8 0, i64 24, i32 8, i1 false) #12
  store %"class.std::__1::basic_string"* %216, %"class.std::__1::basic_string"** %98, align 8
  %227 = load %"class.std::__1::basic_string"*, %"class.std::__1::basic_string"** %98, align 8
  %228 = getelementptr inbounds %"class.std::__1::basic_string", %"class.std::__1::basic_string"* %227, i32 0, i32 0
  store %"class.std::__1::__compressed_pair"* %228, %"class.std::__1::__compressed_pair"** %97, align 8
  %229 = load %"class.std::__1::__compressed_pair"*, %"class.std::__1::__compressed_pair"** %97, align 8
  %230 = bitcast %"class.std::__1::__compressed_pair"* %229 to %"class.std::__1::__libcpp_compressed_pair_imp"*
  store %"class.std::__1::__libcpp_compressed_pair_imp"* %230, %"class.std::__1::__libcpp_compressed_pair_imp"** %96, align 8
  %231 = load %"class.std::__1::__libcpp_compressed_pair_imp"*, %"class.std::__1::__libcpp_compressed_pair_imp"** %96, align 8
  %232 = getelementptr inbounds %"class.std::__1::__libcpp_compressed_pair_imp", %"class.std::__1::__libcpp_compressed_pair_imp"* %231, i32 0, i32 0
  %233 = getelementptr inbounds %"struct.std::__1::basic_string<char, std::__1::char_traits<char>, std::__1::allocator<char> >::__rep", %"struct.std::__1::basic_string<char, std::__1::char_traits<char>, std::__1::allocator<char> >::__rep"* %232, i32 0, i32 0
  %234 = bitcast %union.anon* %233 to %"struct.std::__1::basic_string<char, std::__1::char_traits<char>, std::__1::allocator<char> >::__raw"*
  %235 = getelementptr inbounds %"struct.std::__1::basic_string<char, std::__1::char_traits<char>, std::__1::allocator<char> >::__raw", %"struct.std::__1::basic_string<char, std::__1::char_traits<char>, std::__1::allocator<char> >::__raw"* %234, i32 0, i32 0
  store [3 x i64]* %235, [3 x i64]** %99, align 8
  store i32 0, i32* %100, align 4
  br label %236

; <label>:236:                                    ; preds = %239, %214
  %237 = load i32, i32* %100, align 4
  %238 = icmp ult i32 %237, 3
  br i1 %238, label %239, label %246

; <label>:239:                                    ; preds = %236
  %240 = load [3 x i64]*, [3 x i64]** %99, align 8
  %241 = load i32, i32* %100, align 4
  %242 = zext i32 %241 to i64
  %243 = getelementptr inbounds [3 x i64], [3 x i64]* %240, i64 0, i64 %242
  store i64 0, i64* %243, align 8
  %244 = load i32, i32* %100, align 4
  %245 = add i32 %244, 1
  store i32 %245, i32* %100, align 4
  br label %236

; <label>:246:                                    ; preds = %236
  br label %247

; <label>:247:                                    ; preds = %246
  %248 = invoke dereferenceable(160) %"class.std::__1::basic_ostream"* @_ZNSt3__1lsINS_11char_traitsIcEEEERNS_13basic_ostreamIcT_EES6_PKc(%"class.std::__1::basic_ostream"* dereferenceable(160) @_ZNSt3__14coutE, i8* getelementptr inbounds ([42 x i8], [42 x i8]* @.str.7, i32 0, i32 0))
          to label %249 unwind label %533

; <label>:249:                                    ; preds = %247
  %250 = invoke dereferenceable(168) %"class.std::__1::basic_istream"* @_ZNSt3__1rsIcNS_11char_traitsIcEENS_9allocatorIcEEEERNS_13basic_istreamIT_T0_EES9_RNS_12basic_stringIS6_S7_T1_EE(%"class.std::__1::basic_istream"* dereferenceable(168) @_ZNSt3__13cinE, %"class.std::__1::basic_string"* dereferenceable(24) %130)
          to label %251 unwind label %533

; <label>:251:                                    ; preds = %249
  %252 = invoke dereferenceable(160) %"class.std::__1::basic_ostream"* @_ZNSt3__1lsINS_11char_traitsIcEEEERNS_13basic_ostreamIcT_EES6_PKc(%"class.std::__1::basic_ostream"* dereferenceable(160) @_ZNSt3__14coutE, i8* getelementptr inbounds ([56 x i8], [56 x i8]* @.str.8, i32 0, i32 0))
          to label %253 unwind label %533

; <label>:253:                                    ; preds = %251
  %254 = invoke dereferenceable(168) %"class.std::__1::basic_istream"* @_ZNSt3__1rsIcNS_11char_traitsIcEENS_9allocatorIcEEEERNS_13basic_istreamIT_T0_EES9_RNS_12basic_stringIS6_S7_T1_EE(%"class.std::__1::basic_istream"* dereferenceable(168) @_ZNSt3__13cinE, %"class.std::__1::basic_string"* dereferenceable(24) %131)
          to label %255 unwind label %533

; <label>:255:                                    ; preds = %253
  store %"class.std::__1::basic_ostream"* @_ZNSt3__14coutE, %"class.std::__1::basic_ostream"** %94, align 8
  store %"class.std::__1::basic_ostream"* (%"class.std::__1::basic_ostream"*)* @_ZNSt3__14endlIcNS_11char_traitsIcEEEERNS_13basic_ostreamIT_T0_EES7_, %"class.std::__1::basic_ostream"* (%"class.std::__1::basic_ostream"*)** %95, align 8
  %256 = load %"class.std::__1::basic_ostream"*, %"class.std::__1::basic_ostream"** %94, align 8
  %257 = load %"class.std::__1::basic_ostream"* (%"class.std::__1::basic_ostream"*)*, %"class.std::__1::basic_ostream"* (%"class.std::__1::basic_ostream"*)** %95, align 8
  %258 = invoke dereferenceable(160) %"class.std::__1::basic_ostream"* %257(%"class.std::__1::basic_ostream"* dereferenceable(160) %256)
          to label %259 unwind label %533

; <label>:259:                                    ; preds = %255
  br label %260

; <label>:260:                                    ; preds = %259
  store %"class.std::__1::basic_string"* %134, %"class.std::__1::basic_string"** %92, align 8
  store i8* getelementptr inbounds ([84 x i8], [84 x i8]* @.str.9, i32 0, i32 0), i8** %93, align 8
  %261 = load %"class.std::__1::basic_string"*, %"class.std::__1::basic_string"** %92, align 8
  %262 = load i8*, i8** %93, align 8
  %263 = invoke dereferenceable(24) %"class.std::__1::basic_string"* @_ZNSt3__112basic_stringIcNS_11char_traitsIcEENS_9allocatorIcEEE6assignEPKc(%"class.std::__1::basic_string"* %261, i8* %262)
          to label %264 unwind label %533

; <label>:264:                                    ; preds = %260
  br label %265

; <label>:265:                                    ; preds = %264
  invoke void @_ZNSt3__112basic_stringIcNS_11char_traitsIcEENS_9allocatorIcEEEC1ERKS5_(%"class.std::__1::basic_string"* %135, %"class.std::__1::basic_string"* dereferenceable(24) %130)
          to label %266 unwind label %533

; <label>:266:                                    ; preds = %265
  invoke void @_ZNSt3__112basic_stringIcNS_11char_traitsIcEENS_9allocatorIcEEEC1ERKS5_(%"class.std::__1::basic_string"* %136, %"class.std::__1::basic_string"* dereferenceable(24) %134)
          to label %267 unwind label %537

; <label>:267:                                    ; preds = %266
  invoke void @_ZNSt3__112basic_stringIcNS_11char_traitsIcEENS_9allocatorIcEEEC1ERKS5_(%"class.std::__1::basic_string"* %137, %"class.std::__1::basic_string"* dereferenceable(24) %131)
          to label %268 unwind label %541

; <label>:268:                                    ; preds = %267
  invoke void @_Z10activationNSt3__112basic_stringIcNS_11char_traitsIcEENS_9allocatorIcEEEES5_S5_(%"class.std::__1::basic_string"* %135, %"class.std::__1::basic_string"* %136, %"class.std::__1::basic_string"* %137)
          to label %269 unwind label %545

; <label>:269:                                    ; preds = %268
  invoke void @_ZNSt3__112basic_stringIcNS_11char_traitsIcEENS_9allocatorIcEEED1Ev(%"class.std::__1::basic_string"* %137)
          to label %270 unwind label %541

; <label>:270:                                    ; preds = %269
  invoke void @_ZNSt3__112basic_stringIcNS_11char_traitsIcEENS_9allocatorIcEEED1Ev(%"class.std::__1::basic_string"* %136)
          to label %271 unwind label %537

; <label>:271:                                    ; preds = %270
  invoke void @_ZNSt3__112basic_stringIcNS_11char_traitsIcEENS_9allocatorIcEEED1Ev(%"class.std::__1::basic_string"* %135)
          to label %272 unwind label %533

; <label>:272:                                    ; preds = %271
  %273 = invoke dereferenceable(160) %"class.std::__1::basic_ostream"* @_ZNSt3__1lsINS_11char_traitsIcEEEERNS_13basic_ostreamIcT_EES6_PKc(%"class.std::__1::basic_ostream"* dereferenceable(160) @_ZNSt3__14coutE, i8* getelementptr inbounds ([18 x i8], [18 x i8]* @.str.10, i32 0, i32 0))
          to label %274 unwind label %533

; <label>:274:                                    ; preds = %272
  store %"class.std::__1::basic_ostream"* %273, %"class.std::__1::basic_ostream"** %90, align 8
  store %"class.std::__1::basic_ostream"* (%"class.std::__1::basic_ostream"*)* @_ZNSt3__14endlIcNS_11char_traitsIcEEEERNS_13basic_ostreamIT_T0_EES7_, %"class.std::__1::basic_ostream"* (%"class.std::__1::basic_ostream"*)** %91, align 8
  %275 = load %"class.std::__1::basic_ostream"*, %"class.std::__1::basic_ostream"** %90, align 8
  %276 = load %"class.std::__1::basic_ostream"* (%"class.std::__1::basic_ostream"*)*, %"class.std::__1::basic_ostream"* (%"class.std::__1::basic_ostream"*)** %91, align 8
  %277 = invoke dereferenceable(160) %"class.std::__1::basic_ostream"* %276(%"class.std::__1::basic_ostream"* dereferenceable(160) %275)
          to label %278 unwind label %533

; <label>:278:                                    ; preds = %274
  br label %279

; <label>:279:                                    ; preds = %278
  store %"class.std::__1::vector"* %138, %"class.std::__1::vector"** %89, align 8
  %280 = load %"class.std::__1::vector"*, %"class.std::__1::vector"** %89, align 8
  store %"class.std::__1::vector"* %280, %"class.std::__1::vector"** %88, align 8
  %281 = load %"class.std::__1::vector"*, %"class.std::__1::vector"** %88, align 8
  %282 = bitcast %"class.std::__1::vector"* %281 to %"class.std::__1::__vector_base"*
  store %"class.std::__1::__vector_base"* %282, %"class.std::__1::__vector_base"** %84, align 8
  %283 = load %"class.std::__1::__vector_base"*, %"class.std::__1::__vector_base"** %84, align 8
  %284 = bitcast %"class.std::__1::__vector_base"* %283 to %"class.std::__1::__vector_base_common"*
  store %"class.std::__1::__vector_base_common"* %284, %"class.std::__1::__vector_base_common"** %83, align 8
  %285 = load %"class.std::__1::__vector_base_common"*, %"class.std::__1::__vector_base_common"** %83, align 8
  %286 = getelementptr inbounds %"class.std::__1::__vector_base", %"class.std::__1::__vector_base"* %283, i32 0, i32 0
  store %"struct.std::__1::nullptr_t"* %60, %"struct.std::__1::nullptr_t"** %58, align 8
  store i64 -1, i64* %59, align 8
  %287 = load %"struct.std::__1::nullptr_t"*, %"struct.std::__1::nullptr_t"** %58, align 8
  %288 = load i64, i64* %59, align 8
  store %"struct.std::__1::nullptr_t"* %287, %"struct.std::__1::nullptr_t"** %56, align 8
  store i64 %288, i64* %57, align 8
  %289 = load %"struct.std::__1::nullptr_t"*, %"struct.std::__1::nullptr_t"** %56, align 8
  %290 = getelementptr inbounds %"struct.std::__1::nullptr_t", %"struct.std::__1::nullptr_t"* %289, i32 0, i32 0
  store i8* null, i8** %290, align 8
  %291 = getelementptr inbounds %"struct.std::__1::nullptr_t", %"struct.std::__1::nullptr_t"* %60, i32 0, i32 0
  %292 = load i8*, i8** %291, align 8
  %293 = getelementptr inbounds %"struct.std::__1::nullptr_t", %"struct.std::__1::nullptr_t"* %85, i32 0, i32 0
  store i8* %292, i8** %293, align 8
  store %"struct.std::__1::nullptr_t"* %85, %"struct.std::__1::nullptr_t"** %61, align 8
  %294 = load %"struct.std::__1::nullptr_t"*, %"struct.std::__1::nullptr_t"** %61, align 8
  store i32* null, i32** %286, align 8
  %295 = getelementptr inbounds %"class.std::__1::__vector_base", %"class.std::__1::__vector_base"* %283, i32 0, i32 1
  store %"struct.std::__1::nullptr_t"* %66, %"struct.std::__1::nullptr_t"** %64, align 8
  store i64 -1, i64* %65, align 8
  %296 = load %"struct.std::__1::nullptr_t"*, %"struct.std::__1::nullptr_t"** %64, align 8
  %297 = load i64, i64* %65, align 8
  store %"struct.std::__1::nullptr_t"* %296, %"struct.std::__1::nullptr_t"** %62, align 8
  store i64 %297, i64* %63, align 8
  %298 = load %"struct.std::__1::nullptr_t"*, %"struct.std::__1::nullptr_t"** %62, align 8
  %299 = getelementptr inbounds %"struct.std::__1::nullptr_t", %"struct.std::__1::nullptr_t"* %298, i32 0, i32 0
  store i8* null, i8** %299, align 8
  %300 = getelementptr inbounds %"struct.std::__1::nullptr_t", %"struct.std::__1::nullptr_t"* %66, i32 0, i32 0
  %301 = load i8*, i8** %300, align 8
  %302 = getelementptr inbounds %"struct.std::__1::nullptr_t", %"struct.std::__1::nullptr_t"* %86, i32 0, i32 0
  store i8* %301, i8** %302, align 8
  store %"struct.std::__1::nullptr_t"* %86, %"struct.std::__1::nullptr_t"** %67, align 8
  %303 = load %"struct.std::__1::nullptr_t"*, %"struct.std::__1::nullptr_t"** %67, align 8
  store i32* null, i32** %295, align 8
  %304 = getelementptr inbounds %"class.std::__1::__vector_base", %"class.std::__1::__vector_base"* %283, i32 0, i32 2
  store %"struct.std::__1::nullptr_t"* %72, %"struct.std::__1::nullptr_t"** %70, align 8
  store i64 -1, i64* %71, align 8
  %305 = load %"struct.std::__1::nullptr_t"*, %"struct.std::__1::nullptr_t"** %70, align 8
  %306 = load i64, i64* %71, align 8
  store %"struct.std::__1::nullptr_t"* %305, %"struct.std::__1::nullptr_t"** %68, align 8
  store i64 %306, i64* %69, align 8
  %307 = load %"struct.std::__1::nullptr_t"*, %"struct.std::__1::nullptr_t"** %68, align 8
  %308 = getelementptr inbounds %"struct.std::__1::nullptr_t", %"struct.std::__1::nullptr_t"* %307, i32 0, i32 0
  store i8* null, i8** %308, align 8
  %309 = getelementptr inbounds %"struct.std::__1::nullptr_t", %"struct.std::__1::nullptr_t"* %72, i32 0, i32 0
  %310 = load i8*, i8** %309, align 8
  %311 = getelementptr inbounds %"struct.std::__1::nullptr_t", %"struct.std::__1::nullptr_t"* %87, i32 0, i32 0
  store i8* %310, i8** %311, align 8
  store %"struct.std::__1::nullptr_t"* %87, %"struct.std::__1::nullptr_t"** %73, align 8
  %312 = load %"struct.std::__1::nullptr_t"*, %"struct.std::__1::nullptr_t"** %73, align 8
  store %"class.std::__1::__compressed_pair.1"* %304, %"class.std::__1::__compressed_pair.1"** %81, align 8
  store i32* null, i32** %82, align 8
  %313 = load %"class.std::__1::__compressed_pair.1"*, %"class.std::__1::__compressed_pair.1"** %81, align 8
  %314 = load i32*, i32** %82, align 8
  store %"class.std::__1::__compressed_pair.1"* %313, %"class.std::__1::__compressed_pair.1"** %79, align 8
  store i32* %314, i32** %80, align 8
  %315 = load %"class.std::__1::__compressed_pair.1"*, %"class.std::__1::__compressed_pair.1"** %79, align 8
  %316 = bitcast %"class.std::__1::__compressed_pair.1"* %315 to %"class.std::__1::__libcpp_compressed_pair_imp.2"*
  store i32** %80, i32*** %78, align 8
  %317 = load i32**, i32*** %78, align 8
  %318 = load i32*, i32** %317, align 8
  store %"class.std::__1::__libcpp_compressed_pair_imp.2"* %316, %"class.std::__1::__libcpp_compressed_pair_imp.2"** %76, align 8
  store i32* %318, i32** %77, align 8
  %319 = load %"class.std::__1::__libcpp_compressed_pair_imp.2"*, %"class.std::__1::__libcpp_compressed_pair_imp.2"** %76, align 8
  %320 = bitcast %"class.std::__1::__libcpp_compressed_pair_imp.2"* %319 to %"class.std::__1::allocator.3"*
  store %"class.std::__1::allocator.3"* %320, %"class.std::__1::allocator.3"** %75, align 8
  %321 = load %"class.std::__1::allocator.3"*, %"class.std::__1::allocator.3"** %75, align 8
  %322 = getelementptr inbounds %"class.std::__1::__libcpp_compressed_pair_imp.2", %"class.std::__1::__libcpp_compressed_pair_imp.2"* %319, i32 0, i32 0
  store i32** %77, i32*** %74, align 8
  %323 = load i32**, i32*** %74, align 8
  %324 = load i32*, i32** %323, align 8
  store i32* %324, i32** %322, align 8
  br label %325

; <label>:325:                                    ; preds = %279
  store i32 1, i32* %139, align 4
  store %"class.std::__1::vector"* %138, %"class.std::__1::vector"** %52, align 8
  store i32* %139, i32** %53, align 8
  %326 = load %"class.std::__1::vector"*, %"class.std::__1::vector"** %52, align 8
  store %"class.std::__1::vector"* %326, %"class.std::__1::vector"** %51
  %327 = load volatile %"class.std::__1::vector"*, %"class.std::__1::vector"** %51
  %328 = bitcast %"class.std::__1::vector"* %327 to %"class.std::__1::__vector_base"*
  %329 = getelementptr inbounds %"class.std::__1::__vector_base", %"class.std::__1::__vector_base"* %328, i32 0, i32 1
  %330 = load i32*, i32** %329, align 8
  store i32* %330, i32** %50
  %331 = load volatile %"class.std::__1::vector"*, %"class.std::__1::vector"** %51
  %332 = bitcast %"class.std::__1::vector"* %331 to %"class.std::__1::__vector_base"*
  store %"class.std::__1::__vector_base"* %332, %"class.std::__1::__vector_base"** %48, align 8
  %333 = load %"class.std::__1::__vector_base"*, %"class.std::__1::__vector_base"** %48, align 8
  %334 = getelementptr inbounds %"class.std::__1::__vector_base", %"class.std::__1::__vector_base"* %333, i32 0, i32 2
  store %"class.std::__1::__compressed_pair.1"* %334, %"class.std::__1::__compressed_pair.1"** %47, align 8
  %335 = load %"class.std::__1::__compressed_pair.1"*, %"class.std::__1::__compressed_pair.1"** %47, align 8
  %336 = bitcast %"class.std::__1::__compressed_pair.1"* %335 to %"class.std::__1::__libcpp_compressed_pair_imp.2"*
  store %"class.std::__1::__libcpp_compressed_pair_imp.2"* %336, %"class.std::__1::__libcpp_compressed_pair_imp.2"** %46, align 8
  %337 = load %"class.std::__1::__libcpp_compressed_pair_imp.2"*, %"class.std::__1::__libcpp_compressed_pair_imp.2"** %46, align 8
  %338 = getelementptr inbounds %"class.std::__1::__libcpp_compressed_pair_imp.2", %"class.std::__1::__libcpp_compressed_pair_imp.2"* %337, i32 0, i32 0
  %339 = load i32*, i32** %338, align 8
  store i32* %339, i32** %49
  store i32 -2091646092, i32* %55
  br label %340

; <label>:340:                                    ; preds = %378, %325
  %341 = load i32, i32* %55
  switch i32 %341, label %342 [
    i32 -2091646092, label %343
    i32 -569640669, label %348
    i32 -1588547738, label %374
    i32 963687673, label %379
  ]

; <label>:342:                                    ; preds = %340
  br label %378

; <label>:343:                                    ; preds = %340
  %344 = load volatile i32*, i32** %50
  %345 = load volatile i32*, i32** %49
  %346 = icmp ne i32* %344, %345
  %347 = select i1 %346, i32 -569640669, i32 -1588547738
  store i32 %347, i32* %55
  br label %378

; <label>:348:                                    ; preds = %340
  %349 = load volatile %"class.std::__1::vector"*, %"class.std::__1::vector"** %51
  invoke void @_ZNSt3__16vectorIiNS_9allocatorIiEEE24__RAII_IncreaseAnnotatorC1ERKS3_m(%"struct.std::__1::vector<int, std::__1::allocator<int> >::__RAII_IncreaseAnnotator"* %54, %"class.std::__1::vector"* dereferenceable(24) %349, i64 1)
          to label %350 unwind label %554

; <label>:350:                                    ; preds = %348
  %351 = load volatile %"class.std::__1::vector"*, %"class.std::__1::vector"** %51
  %352 = bitcast %"class.std::__1::vector"* %351 to %"class.std::__1::__vector_base"*
  store %"class.std::__1::__vector_base"* %352, %"class.std::__1::__vector_base"** %45, align 8
  %353 = load %"class.std::__1::__vector_base"*, %"class.std::__1::__vector_base"** %45, align 8
  %354 = getelementptr inbounds %"class.std::__1::__vector_base", %"class.std::__1::__vector_base"* %353, i32 0, i32 2
  store %"class.std::__1::__compressed_pair.1"* %354, %"class.std::__1::__compressed_pair.1"** %44, align 8
  %355 = load %"class.std::__1::__compressed_pair.1"*, %"class.std::__1::__compressed_pair.1"** %44, align 8
  %356 = bitcast %"class.std::__1::__compressed_pair.1"* %355 to %"class.std::__1::__libcpp_compressed_pair_imp.2"*
  store %"class.std::__1::__libcpp_compressed_pair_imp.2"* %356, %"class.std::__1::__libcpp_compressed_pair_imp.2"** %43, align 8
  %357 = load %"class.std::__1::__libcpp_compressed_pair_imp.2"*, %"class.std::__1::__libcpp_compressed_pair_imp.2"** %43, align 8
  %358 = bitcast %"class.std::__1::__libcpp_compressed_pair_imp.2"* %357 to %"class.std::__1::allocator.3"*
  %359 = load volatile %"class.std::__1::vector"*, %"class.std::__1::vector"** %51
  %360 = bitcast %"class.std::__1::vector"* %359 to %"class.std::__1::__vector_base"*
  %361 = getelementptr inbounds %"class.std::__1::__vector_base", %"class.std::__1::__vector_base"* %360, i32 0, i32 1
  %362 = load i32*, i32** %361, align 8
  store i32* %362, i32** %42, align 8
  %363 = load i32*, i32** %42, align 8
  %364 = load i32*, i32** %53, align 8
  store %"class.std::__1::allocator.3"* %358, %"class.std::__1::allocator.3"** %39, align 8
  store i32* %363, i32** %40, align 8
  store i32* %364, i32** %41, align 8
  %365 = load i32*, i32** %40, align 8
  %366 = bitcast i32* %365 to i8*
  %367 = load i32*, i32** %41, align 8
  %368 = load i32, i32* %367, align 4
  store i32 %368, i32* %365, align 4
  call void @_ZNSt3__16vectorIiNS_9allocatorIiEEE24__RAII_IncreaseAnnotator6__doneEv(%"struct.std::__1::vector<int, std::__1::allocator<int> >::__RAII_IncreaseAnnotator"* %54)
  %369 = load volatile %"class.std::__1::vector"*, %"class.std::__1::vector"** %51
  %370 = bitcast %"class.std::__1::vector"* %369 to %"class.std::__1::__vector_base"*
  %371 = getelementptr inbounds %"class.std::__1::__vector_base", %"class.std::__1::__vector_base"* %370, i32 0, i32 1
  %372 = load i32*, i32** %371, align 8
  %373 = getelementptr inbounds i32, i32* %372, i32 1
  store i32* %373, i32** %371, align 8
  store i32 963687673, i32* %55
  br label %378

; <label>:374:                                    ; preds = %340
  %375 = load i32*, i32** %53, align 8
  %376 = load volatile %"class.std::__1::vector"*, %"class.std::__1::vector"** %51
  invoke void @_ZNSt3__16vectorIiNS_9allocatorIiEEE21__push_back_slow_pathIKiEEvRT_(%"class.std::__1::vector"* %376, i32* dereferenceable(4) %375)
          to label %377 unwind label %554

; <label>:377:                                    ; preds = %374
  store i32 963687673, i32* %55
  br label %378

; <label>:378:                                    ; preds = %377, %350, %343, %342
  br label %340

; <label>:379:                                    ; preds = %340
  br label %380

; <label>:380:                                    ; preds = %379
  store i32 2, i32* %140, align 4
  store %"class.std::__1::vector"* %138, %"class.std::__1::vector"** %35, align 8
  store i32* %140, i32** %36, align 8
  %381 = load %"class.std::__1::vector"*, %"class.std::__1::vector"** %35, align 8
  store %"class.std::__1::vector"* %381, %"class.std::__1::vector"** %34
  %382 = load volatile %"class.std::__1::vector"*, %"class.std::__1::vector"** %34
  %383 = bitcast %"class.std::__1::vector"* %382 to %"class.std::__1::__vector_base"*
  %384 = getelementptr inbounds %"class.std::__1::__vector_base", %"class.std::__1::__vector_base"* %383, i32 0, i32 1
  %385 = load i32*, i32** %384, align 8
  store i32* %385, i32** %33
  %386 = load volatile %"class.std::__1::vector"*, %"class.std::__1::vector"** %34
  %387 = bitcast %"class.std::__1::vector"* %386 to %"class.std::__1::__vector_base"*
  store %"class.std::__1::__vector_base"* %387, %"class.std::__1::__vector_base"** %31, align 8
  %388 = load %"class.std::__1::__vector_base"*, %"class.std::__1::__vector_base"** %31, align 8
  %389 = getelementptr inbounds %"class.std::__1::__vector_base", %"class.std::__1::__vector_base"* %388, i32 0, i32 2
  store %"class.std::__1::__compressed_pair.1"* %389, %"class.std::__1::__compressed_pair.1"** %30, align 8
  %390 = load %"class.std::__1::__compressed_pair.1"*, %"class.std::__1::__compressed_pair.1"** %30, align 8
  %391 = bitcast %"class.std::__1::__compressed_pair.1"* %390 to %"class.std::__1::__libcpp_compressed_pair_imp.2"*
  store %"class.std::__1::__libcpp_compressed_pair_imp.2"* %391, %"class.std::__1::__libcpp_compressed_pair_imp.2"** %29, align 8
  %392 = load %"class.std::__1::__libcpp_compressed_pair_imp.2"*, %"class.std::__1::__libcpp_compressed_pair_imp.2"** %29, align 8
  %393 = getelementptr inbounds %"class.std::__1::__libcpp_compressed_pair_imp.2", %"class.std::__1::__libcpp_compressed_pair_imp.2"* %392, i32 0, i32 0
  %394 = load i32*, i32** %393, align 8
  store i32* %394, i32** %32
  store i32 -2091646092, i32* %38
  br label %395

; <label>:395:                                    ; preds = %433, %380
  %396 = load i32, i32* %38
  switch i32 %396, label %397 [
    i32 -2091646092, label %398
    i32 -569640669, label %403
    i32 -1588547738, label %429
    i32 963687673, label %434
  ]

; <label>:397:                                    ; preds = %395
  br label %433

; <label>:398:                                    ; preds = %395
  %399 = load volatile i32*, i32** %33
  %400 = load volatile i32*, i32** %32
  %401 = icmp ne i32* %399, %400
  %402 = select i1 %401, i32 -569640669, i32 -1588547738
  store i32 %402, i32* %38
  br label %433

; <label>:403:                                    ; preds = %395
  %404 = load volatile %"class.std::__1::vector"*, %"class.std::__1::vector"** %34
  invoke void @_ZNSt3__16vectorIiNS_9allocatorIiEEE24__RAII_IncreaseAnnotatorC1ERKS3_m(%"struct.std::__1::vector<int, std::__1::allocator<int> >::__RAII_IncreaseAnnotator"* %37, %"class.std::__1::vector"* dereferenceable(24) %404, i64 1)
          to label %405 unwind label %554

; <label>:405:                                    ; preds = %403
  %406 = load volatile %"class.std::__1::vector"*, %"class.std::__1::vector"** %34
  %407 = bitcast %"class.std::__1::vector"* %406 to %"class.std::__1::__vector_base"*
  store %"class.std::__1::__vector_base"* %407, %"class.std::__1::__vector_base"** %28, align 8
  %408 = load %"class.std::__1::__vector_base"*, %"class.std::__1::__vector_base"** %28, align 8
  %409 = getelementptr inbounds %"class.std::__1::__vector_base", %"class.std::__1::__vector_base"* %408, i32 0, i32 2
  store %"class.std::__1::__compressed_pair.1"* %409, %"class.std::__1::__compressed_pair.1"** %27, align 8
  %410 = load %"class.std::__1::__compressed_pair.1"*, %"class.std::__1::__compressed_pair.1"** %27, align 8
  %411 = bitcast %"class.std::__1::__compressed_pair.1"* %410 to %"class.std::__1::__libcpp_compressed_pair_imp.2"*
  store %"class.std::__1::__libcpp_compressed_pair_imp.2"* %411, %"class.std::__1::__libcpp_compressed_pair_imp.2"** %26, align 8
  %412 = load %"class.std::__1::__libcpp_compressed_pair_imp.2"*, %"class.std::__1::__libcpp_compressed_pair_imp.2"** %26, align 8
  %413 = bitcast %"class.std::__1::__libcpp_compressed_pair_imp.2"* %412 to %"class.std::__1::allocator.3"*
  %414 = load volatile %"class.std::__1::vector"*, %"class.std::__1::vector"** %34
  %415 = bitcast %"class.std::__1::vector"* %414 to %"class.std::__1::__vector_base"*
  %416 = getelementptr inbounds %"class.std::__1::__vector_base", %"class.std::__1::__vector_base"* %415, i32 0, i32 1
  %417 = load i32*, i32** %416, align 8
  store i32* %417, i32** %25, align 8
  %418 = load i32*, i32** %25, align 8
  %419 = load i32*, i32** %36, align 8
  store %"class.std::__1::allocator.3"* %413, %"class.std::__1::allocator.3"** %22, align 8
  store i32* %418, i32** %23, align 8
  store i32* %419, i32** %24, align 8
  %420 = load i32*, i32** %23, align 8
  %421 = bitcast i32* %420 to i8*
  %422 = load i32*, i32** %24, align 8
  %423 = load i32, i32* %422, align 4
  store i32 %423, i32* %420, align 4
  call void @_ZNSt3__16vectorIiNS_9allocatorIiEEE24__RAII_IncreaseAnnotator6__doneEv(%"struct.std::__1::vector<int, std::__1::allocator<int> >::__RAII_IncreaseAnnotator"* %37)
  %424 = load volatile %"class.std::__1::vector"*, %"class.std::__1::vector"** %34
  %425 = bitcast %"class.std::__1::vector"* %424 to %"class.std::__1::__vector_base"*
  %426 = getelementptr inbounds %"class.std::__1::__vector_base", %"class.std::__1::__vector_base"* %425, i32 0, i32 1
  %427 = load i32*, i32** %426, align 8
  %428 = getelementptr inbounds i32, i32* %427, i32 1
  store i32* %428, i32** %426, align 8
  store i32 963687673, i32* %38
  br label %433

; <label>:429:                                    ; preds = %395
  %430 = load i32*, i32** %36, align 8
  %431 = load volatile %"class.std::__1::vector"*, %"class.std::__1::vector"** %34
  invoke void @_ZNSt3__16vectorIiNS_9allocatorIiEEE21__push_back_slow_pathIKiEEvRT_(%"class.std::__1::vector"* %431, i32* dereferenceable(4) %430)
          to label %432 unwind label %554

; <label>:432:                                    ; preds = %429
  store i32 963687673, i32* %38
  br label %433

; <label>:433:                                    ; preds = %432, %405, %398, %397
  br label %395

; <label>:434:                                    ; preds = %395
  br label %435

; <label>:435:                                    ; preds = %434
  store i32 1, i32* %141, align 4
  store %"class.std::__1::vector"* %138, %"class.std::__1::vector"** %18, align 8
  store i32* %141, i32** %19, align 8
  %436 = load %"class.std::__1::vector"*, %"class.std::__1::vector"** %18, align 8
  store %"class.std::__1::vector"* %436, %"class.std::__1::vector"** %17
  %437 = load volatile %"class.std::__1::vector"*, %"class.std::__1::vector"** %17
  %438 = bitcast %"class.std::__1::vector"* %437 to %"class.std::__1::__vector_base"*
  %439 = getelementptr inbounds %"class.std::__1::__vector_base", %"class.std::__1::__vector_base"* %438, i32 0, i32 1
  %440 = load i32*, i32** %439, align 8
  store i32* %440, i32** %16
  %441 = load volatile %"class.std::__1::vector"*, %"class.std::__1::vector"** %17
  %442 = bitcast %"class.std::__1::vector"* %441 to %"class.std::__1::__vector_base"*
  store %"class.std::__1::__vector_base"* %442, %"class.std::__1::__vector_base"** %14, align 8
  %443 = load %"class.std::__1::__vector_base"*, %"class.std::__1::__vector_base"** %14, align 8
  %444 = getelementptr inbounds %"class.std::__1::__vector_base", %"class.std::__1::__vector_base"* %443, i32 0, i32 2
  store %"class.std::__1::__compressed_pair.1"* %444, %"class.std::__1::__compressed_pair.1"** %13, align 8
  %445 = load %"class.std::__1::__compressed_pair.1"*, %"class.std::__1::__compressed_pair.1"** %13, align 8
  %446 = bitcast %"class.std::__1::__compressed_pair.1"* %445 to %"class.std::__1::__libcpp_compressed_pair_imp.2"*
  store %"class.std::__1::__libcpp_compressed_pair_imp.2"* %446, %"class.std::__1::__libcpp_compressed_pair_imp.2"** %12, align 8
  %447 = load %"class.std::__1::__libcpp_compressed_pair_imp.2"*, %"class.std::__1::__libcpp_compressed_pair_imp.2"** %12, align 8
  %448 = getelementptr inbounds %"class.std::__1::__libcpp_compressed_pair_imp.2", %"class.std::__1::__libcpp_compressed_pair_imp.2"* %447, i32 0, i32 0
  %449 = load i32*, i32** %448, align 8
  store i32* %449, i32** %15
  store i32 -2091646092, i32* %21
  br label %450

; <label>:450:                                    ; preds = %488, %435
  %451 = load i32, i32* %21
  switch i32 %451, label %452 [
    i32 -2091646092, label %453
    i32 -569640669, label %458
    i32 -1588547738, label %484
    i32 963687673, label %489
  ]

; <label>:452:                                    ; preds = %450
  br label %488

; <label>:453:                                    ; preds = %450
  %454 = load volatile i32*, i32** %16
  %455 = load volatile i32*, i32** %15
  %456 = icmp ne i32* %454, %455
  %457 = select i1 %456, i32 -569640669, i32 -1588547738
  store i32 %457, i32* %21
  br label %488

; <label>:458:                                    ; preds = %450
  %459 = load volatile %"class.std::__1::vector"*, %"class.std::__1::vector"** %17
  invoke void @_ZNSt3__16vectorIiNS_9allocatorIiEEE24__RAII_IncreaseAnnotatorC1ERKS3_m(%"struct.std::__1::vector<int, std::__1::allocator<int> >::__RAII_IncreaseAnnotator"* %20, %"class.std::__1::vector"* dereferenceable(24) %459, i64 1)
          to label %460 unwind label %554

; <label>:460:                                    ; preds = %458
  %461 = load volatile %"class.std::__1::vector"*, %"class.std::__1::vector"** %17
  %462 = bitcast %"class.std::__1::vector"* %461 to %"class.std::__1::__vector_base"*
  store %"class.std::__1::__vector_base"* %462, %"class.std::__1::__vector_base"** %11, align 8
  %463 = load %"class.std::__1::__vector_base"*, %"class.std::__1::__vector_base"** %11, align 8
  %464 = getelementptr inbounds %"class.std::__1::__vector_base", %"class.std::__1::__vector_base"* %463, i32 0, i32 2
  store %"class.std::__1::__compressed_pair.1"* %464, %"class.std::__1::__compressed_pair.1"** %10, align 8
  %465 = load %"class.std::__1::__compressed_pair.1"*, %"class.std::__1::__compressed_pair.1"** %10, align 8
  %466 = bitcast %"class.std::__1::__compressed_pair.1"* %465 to %"class.std::__1::__libcpp_compressed_pair_imp.2"*
  store %"class.std::__1::__libcpp_compressed_pair_imp.2"* %466, %"class.std::__1::__libcpp_compressed_pair_imp.2"** %9, align 8
  %467 = load %"class.std::__1::__libcpp_compressed_pair_imp.2"*, %"class.std::__1::__libcpp_compressed_pair_imp.2"** %9, align 8
  %468 = bitcast %"class.std::__1::__libcpp_compressed_pair_imp.2"* %467 to %"class.std::__1::allocator.3"*
  %469 = load volatile %"class.std::__1::vector"*, %"class.std::__1::vector"** %17
  %470 = bitcast %"class.std::__1::vector"* %469 to %"class.std::__1::__vector_base"*
  %471 = getelementptr inbounds %"class.std::__1::__vector_base", %"class.std::__1::__vector_base"* %470, i32 0, i32 1
  %472 = load i32*, i32** %471, align 8
  store i32* %472, i32** %8, align 8
  %473 = load i32*, i32** %8, align 8
  %474 = load i32*, i32** %19, align 8
  store %"class.std::__1::allocator.3"* %468, %"class.std::__1::allocator.3"** %5, align 8
  store i32* %473, i32** %6, align 8
  store i32* %474, i32** %7, align 8
  %475 = load i32*, i32** %6, align 8
  %476 = bitcast i32* %475 to i8*
  %477 = load i32*, i32** %7, align 8
  %478 = load i32, i32* %477, align 4
  store i32 %478, i32* %475, align 4
  call void @_ZNSt3__16vectorIiNS_9allocatorIiEEE24__RAII_IncreaseAnnotator6__doneEv(%"struct.std::__1::vector<int, std::__1::allocator<int> >::__RAII_IncreaseAnnotator"* %20)
  %479 = load volatile %"class.std::__1::vector"*, %"class.std::__1::vector"** %17
  %480 = bitcast %"class.std::__1::vector"* %479 to %"class.std::__1::__vector_base"*
  %481 = getelementptr inbounds %"class.std::__1::__vector_base", %"class.std::__1::__vector_base"* %480, i32 0, i32 1
  %482 = load i32*, i32** %481, align 8
  %483 = getelementptr inbounds i32, i32* %482, i32 1
  store i32* %483, i32** %481, align 8
  store i32 963687673, i32* %21
  br label %488

; <label>:484:                                    ; preds = %450
  %485 = load i32*, i32** %19, align 8
  %486 = load volatile %"class.std::__1::vector"*, %"class.std::__1::vector"** %17
  invoke void @_ZNSt3__16vectorIiNS_9allocatorIiEEE21__push_back_slow_pathIKiEEvRT_(%"class.std::__1::vector"* %486, i32* dereferenceable(4) %485)
          to label %487 unwind label %554

; <label>:487:                                    ; preds = %484
  store i32 963687673, i32* %21
  br label %488

; <label>:488:                                    ; preds = %487, %460, %453, %452
  br label %450

; <label>:489:                                    ; preds = %450
  br label %490

; <label>:490:                                    ; preds = %489
  invoke void @_ZN7NetworkC1ERKNSt3__16vectorIiNS0_9allocatorIiEEEEd(%class.Network* %142, %"class.std::__1::vector"* dereferenceable(24) %138, double 1.000000e-03)
          to label %491 unwind label %554

; <label>:491:                                    ; preds = %490
  %492 = invoke dereferenceable(160) %"class.std::__1::basic_ostream"* @_ZlsRNSt3__113basic_ostreamIcNS_11char_traitsIcEEEERK7Network(%"class.std::__1::basic_ostream"* dereferenceable(160) @_ZNSt3__14coutE, %class.Network* dereferenceable(192) %142)
          to label %493 unwind label %558

; <label>:493:                                    ; preds = %491
  store %"class.std::__1::basic_ostream"* %492, %"class.std::__1::basic_ostream"** %3, align 8
  store %"class.std::__1::basic_ostream"* (%"class.std::__1::basic_ostream"*)* @_ZNSt3__14endlIcNS_11char_traitsIcEEEERNS_13basic_ostreamIT_T0_EES7_, %"class.std::__1::basic_ostream"* (%"class.std::__1::basic_ostream"*)** %4, align 8
  %494 = load %"class.std::__1::basic_ostream"*, %"class.std::__1::basic_ostream"** %3, align 8
  %495 = load %"class.std::__1::basic_ostream"* (%"class.std::__1::basic_ostream"*)*, %"class.std::__1::basic_ostream"* (%"class.std::__1::basic_ostream"*)** %4, align 8
  %496 = invoke dereferenceable(160) %"class.std::__1::basic_ostream"* %495(%"class.std::__1::basic_ostream"* dereferenceable(160) %494)
          to label %497 unwind label %558

; <label>:497:                                    ; preds = %493
  br label %498

; <label>:498:                                    ; preds = %497
  invoke void @_ZN5boost7numeric5ublas6matrixIdNS1_15basic_row_majorImlEENS1_15unbounded_arrayIdNSt3__19allocatorIdEEEEEC1Emm(%"class.boost::numeric::ublas::matrix"* %143, i64 200, i64 1)
          to label %499 unwind label %558

; <label>:499:                                    ; preds = %498
  invoke void @_ZN5boost7numeric5ublas6matrixIdNS1_15basic_row_majorImlEENS1_15unbounded_arrayIdNSt3__19allocatorIdEEEEEC1Emm(%"class.boost::numeric::ublas::matrix"* %144, i64 200, i64 1)
          to label %500 unwind label %562

; <label>:500:                                    ; preds = %499
  store i32 -100, i32* %145, align 4
  br label %501

; <label>:501:                                    ; preds = %522, %500
  %502 = load i32, i32* %145, align 4
  %503 = icmp slt i32 %502, 100
  br i1 %503, label %504, label %570

; <label>:504:                                    ; preds = %501
  %505 = load i32, i32* %145, align 4
  %506 = sitofp i32 %505 to double
  %507 = fdiv double %506, 1.000000e+02
  %508 = load i32, i32* %145, align 4
  %509 = add nsw i32 %508, 100
  %510 = sext i32 %509 to i64
  %511 = invoke dereferenceable(8) double* @_ZN5boost7numeric5ublas6matrixIdNS1_15basic_row_majorImlEENS1_15unbounded_arrayIdNSt3__19allocatorIdEEEEEclEmm(%"class.boost::numeric::ublas::matrix"* %143, i64 %510, i64 0)
          to label %512 unwind label %566

; <label>:512:                                    ; preds = %504
  store double %507, double* %511, align 8
  %513 = load i32, i32* %145, align 4
  %514 = sitofp i32 %513 to double
  %515 = call double @llvm.pow.f64(double %514, double 2.000000e+00)
  %516 = fdiv double %515, 1.000000e+03
  %517 = load i32, i32* %145, align 4
  %518 = add nsw i32 %517, 100
  %519 = sext i32 %518 to i64
  %520 = invoke dereferenceable(8) double* @_ZN5boost7numeric5ublas6matrixIdNS1_15basic_row_majorImlEENS1_15unbounded_arrayIdNSt3__19allocatorIdEEEEEclEmm(%"class.boost::numeric::ublas::matrix"* %144, i64 %519, i64 0)
          to label %521 unwind label %566

; <label>:521:                                    ; preds = %512
  store double %516, double* %520, align 8
  br label %522

; <label>:522:                                    ; preds = %521
  %523 = load i32, i32* %145, align 4
  %524 = add nsw i32 %523, 1
  store i32 %524, i32* %145, align 4
  br label %501

; <label>:525:                                    ; preds = %630
  %526 = landingpad { i8*, i32 }
          cleanup
  %527 = extractvalue { i8*, i32 } %526, 0
  store i8* %527, i8** %132, align 8
  %528 = extractvalue { i8*, i32 } %526, 1
  store i32 %528, i32* %133, align 4
  br label %637

; <label>:529:                                    ; preds = %627
  %530 = landingpad { i8*, i32 }
          cleanup
  %531 = extractvalue { i8*, i32 } %530, 0
  store i8* %531, i8** %132, align 8
  %532 = extractvalue { i8*, i32 } %530, 1
  store i32 %532, i32* %133, align 4
  br label %635

; <label>:533:                                    ; preds = %274, %260, %255, %624, %272, %271, %265, %253, %251, %249, %247
  %534 = landingpad { i8*, i32 }
          cleanup
  %535 = extractvalue { i8*, i32 } %534, 0
  store i8* %535, i8** %132, align 8
  %536 = extractvalue { i8*, i32 } %534, 1
  store i32 %536, i32* %133, align 4
  br label %631

; <label>:537:                                    ; preds = %270, %266
  %538 = landingpad { i8*, i32 }
          cleanup
  %539 = extractvalue { i8*, i32 } %538, 0
  store i8* %539, i8** %132, align 8
  %540 = extractvalue { i8*, i32 } %538, 1
  store i32 %540, i32* %133, align 4
  br label %552

; <label>:541:                                    ; preds = %269, %267
  %542 = landingpad { i8*, i32 }
          cleanup
  %543 = extractvalue { i8*, i32 } %542, 0
  store i8* %543, i8** %132, align 8
  %544 = extractvalue { i8*, i32 } %542, 1
  store i32 %544, i32* %133, align 4
  br label %550

; <label>:545:                                    ; preds = %268
  %546 = landingpad { i8*, i32 }
          cleanup
  %547 = extractvalue { i8*, i32 } %546, 0
  store i8* %547, i8** %132, align 8
  %548 = extractvalue { i8*, i32 } %546, 1
  store i32 %548, i32* %133, align 4
  invoke void @_ZNSt3__112basic_stringIcNS_11char_traitsIcEENS_9allocatorIcEEED1Ev(%"class.std::__1::basic_string"* %137)
          to label %549 unwind label %644

; <label>:549:                                    ; preds = %545
  br label %550

; <label>:550:                                    ; preds = %549, %541
  invoke void @_ZNSt3__112basic_stringIcNS_11char_traitsIcEENS_9allocatorIcEEED1Ev(%"class.std::__1::basic_string"* %136)
          to label %551 unwind label %644

; <label>:551:                                    ; preds = %550
  br label %552

; <label>:552:                                    ; preds = %551, %537
  invoke void @_ZNSt3__112basic_stringIcNS_11char_traitsIcEENS_9allocatorIcEEED1Ev(%"class.std::__1::basic_string"* %135)
          to label %553 unwind label %644

; <label>:553:                                    ; preds = %552
  br label %631

; <label>:554:                                    ; preds = %484, %458, %429, %403, %374, %348, %621, %490
  %555 = landingpad { i8*, i32 }
          cleanup
  %556 = extractvalue { i8*, i32 } %555, 0
  store i8* %556, i8** %132, align 8
  %557 = extractvalue { i8*, i32 } %555, 1
  store i32 %557, i32* %133, align 4
  br label %628

; <label>:558:                                    ; preds = %493, %618, %498, %491
  %559 = landingpad { i8*, i32 }
          cleanup
  %560 = extractvalue { i8*, i32 } %559, 0
  store i8* %560, i8** %132, align 8
  %561 = extractvalue { i8*, i32 } %559, 1
  store i32 %561, i32* %133, align 4
  br label %625

; <label>:562:                                    ; preds = %615, %499
  %563 = landingpad { i8*, i32 }
          cleanup
  %564 = extractvalue { i8*, i32 } %563, 0
  store i8* %564, i8** %132, align 8
  %565 = extractvalue { i8*, i32 } %563, 1
  store i32 %565, i32* %133, align 4
  br label %622

; <label>:566:                                    ; preds = %614, %571, %570, %512, %504
  %567 = landingpad { i8*, i32 }
          cleanup
  %568 = extractvalue { i8*, i32 } %567, 0
  store i8* %568, i8** %132, align 8
  %569 = extractvalue { i8*, i32 } %567, 1
  store i32 %569, i32* %133, align 4
  br label %619

; <label>:570:                                    ; preds = %501
  invoke void @_ZN7Network3fitERN5boost7numeric5ublas6matrixIdNS2_15basic_row_majorImlEENS2_15unbounded_arrayIdNSt3__19allocatorIdEEEEEESC_i(%class.Network* %142, %"class.boost::numeric::ublas::matrix"* dereferenceable(40) %143, %"class.boost::numeric::ublas::matrix"* dereferenceable(40) %144, i32 10000)
          to label %571 unwind label %566

; <label>:571:                                    ; preds = %570
  invoke void @_ZN5boost7numeric5ublas6vectorIdNS1_15unbounded_arrayIdNSt3__19allocatorIdEEEEEC1Em(%"class.boost::numeric::ublas::vector"* %146, i64 200)
          to label %572 unwind label %566

; <label>:572:                                    ; preds = %571
  store double -1.000000e+02, double* %147, align 8
  br label %573

; <label>:573:                                    ; preds = %594, %572
  %574 = load double, double* %147, align 8
  %575 = fcmp olt double %574, 1.000000e+02
  br i1 %575, label %576, label %606

; <label>:576:                                    ; preds = %573
  invoke void @_ZN5boost7numeric5ublas6vectorIdNS1_15unbounded_arrayIdNSt3__19allocatorIdEEEEEC1Em(%"class.boost::numeric::ublas::vector"* %148, i64 1)
          to label %577 unwind label %597

; <label>:577:                                    ; preds = %576
  %578 = load double, double* %147, align 8
  %579 = fdiv double %578, 1.000000e+02
  %580 = invoke dereferenceable(8) double* @_ZN5boost7numeric5ublas6vectorIdNS1_15unbounded_arrayIdNSt3__19allocatorIdEEEEEixEm(%"class.boost::numeric::ublas::vector"* %148, i64 0)
          to label %581 unwind label %601

; <label>:581:                                    ; preds = %577
  store double %579, double* %580, align 8
  %582 = load double, double* %147, align 8
  %583 = fadd double %582, 1.000000e+02
  %584 = fptoui double %583 to i64
  %585 = invoke %"class.boost::numeric::ublas::vector"* @_ZN7Network7predictERKN5boost7numeric5ublas6vectorIdNS2_15unbounded_arrayIdNSt3__19allocatorIdEEEEEE(%class.Network* %142, %"class.boost::numeric::ublas::vector"* dereferenceable(24) %148)
          to label %586 unwind label %601

; <label>:586:                                    ; preds = %581
  %587 = invoke dereferenceable(8) double* @_ZN5boost7numeric5ublas6vectorIdNS1_15unbounded_arrayIdNSt3__19allocatorIdEEEEEixEm(%"class.boost::numeric::ublas::vector"* %585, i64 0)
          to label %588 unwind label %601

; <label>:588:                                    ; preds = %586
  %589 = load double, double* %587, align 8
  %590 = fmul double %589, 1.000000e+03
  store double %590, double* %149, align 8
  %591 = invoke dereferenceable(8) double* @_ZN5boost7numeric5ublas6vectorIdNS1_15unbounded_arrayIdNSt3__19allocatorIdEEEEE14insert_elementEmRKd(%"class.boost::numeric::ublas::vector"* %146, i64 %584, double* dereferenceable(8) %149)
          to label %592 unwind label %601

; <label>:592:                                    ; preds = %588
  invoke void @_ZN5boost7numeric5ublas6vectorIdNS1_15unbounded_arrayIdNSt3__19allocatorIdEEEEED1Ev(%"class.boost::numeric::ublas::vector"* %148)
          to label %593 unwind label %597

; <label>:593:                                    ; preds = %592
  br label %594

; <label>:594:                                    ; preds = %593
  %595 = load double, double* %147, align 8
  %596 = fadd double %595, 1.000000e+00
  store double %596, double* %147, align 8
  br label %573

; <label>:597:                                    ; preds = %609, %606, %592, %576
  %598 = landingpad { i8*, i32 }
          cleanup
  %599 = extractvalue { i8*, i32 } %598, 0
  store i8* %599, i8** %132, align 8
  %600 = extractvalue { i8*, i32 } %598, 1
  store i32 %600, i32* %133, align 4
  br label %616

; <label>:601:                                    ; preds = %588, %586, %581, %577
  %602 = landingpad { i8*, i32 }
          cleanup
  %603 = extractvalue { i8*, i32 } %602, 0
  store i8* %603, i8** %132, align 8
  %604 = extractvalue { i8*, i32 } %602, 1
  store i32 %604, i32* %133, align 4
  invoke void @_ZN5boost7numeric5ublas6vectorIdNS1_15unbounded_arrayIdNSt3__19allocatorIdEEEEED1Ev(%"class.boost::numeric::ublas::vector"* %148)
          to label %605 unwind label %644

; <label>:605:                                    ; preds = %601
  br label %616

; <label>:606:                                    ; preds = %573
  %607 = bitcast %"class.boost::numeric::ublas::vector"* %146 to %"class.boost::numeric::ublas::vector_expression"*
  %608 = invoke dereferenceable(160) %"class.std::__1::basic_ostream"* @_ZN5boost7numeric5ublaslsIcNSt3__111char_traitsIcEENS1_6vectorIdNS1_15unbounded_arrayIdNS3_9allocatorIdEEEEEEEERNS3_13basic_ostreamIT_T0_EESG_RKNS1_17vector_expressionIT1_EE(%"class.std::__1::basic_ostream"* dereferenceable(160) @_ZNSt3__14coutE, %"class.boost::numeric::ublas::vector_expression"* dereferenceable(1) %607)
          to label %609 unwind label %597

; <label>:609:                                    ; preds = %606
  store %"class.std::__1::basic_ostream"* %608, %"class.std::__1::basic_ostream"** %1, align 8
  store %"class.std::__1::basic_ostream"* (%"class.std::__1::basic_ostream"*)* @_ZNSt3__14endlIcNS_11char_traitsIcEEEERNS_13basic_ostreamIT_T0_EES7_, %"class.std::__1::basic_ostream"* (%"class.std::__1::basic_ostream"*)** %2, align 8
  %610 = load %"class.std::__1::basic_ostream"*, %"class.std::__1::basic_ostream"** %1, align 8
  %611 = load %"class.std::__1::basic_ostream"* (%"class.std::__1::basic_ostream"*)*, %"class.std::__1::basic_ostream"* (%"class.std::__1::basic_ostream"*)** %2, align 8
  %612 = invoke dereferenceable(160) %"class.std::__1::basic_ostream"* %611(%"class.std::__1::basic_ostream"* dereferenceable(160) %610)
          to label %613 unwind label %597

; <label>:613:                                    ; preds = %609
  br label %614

; <label>:614:                                    ; preds = %613
  store i32 0, i32* %129, align 4
  invoke void @_ZN5boost7numeric5ublas6vectorIdNS1_15unbounded_arrayIdNSt3__19allocatorIdEEEEED1Ev(%"class.boost::numeric::ublas::vector"* %146)
          to label %615 unwind label %566

; <label>:615:                                    ; preds = %614
  invoke void @_ZN5boost7numeric5ublas6matrixIdNS1_15basic_row_majorImlEENS1_15unbounded_arrayIdNSt3__19allocatorIdEEEEED1Ev(%"class.boost::numeric::ublas::matrix"* %144)
          to label %618 unwind label %562

; <label>:616:                                    ; preds = %605, %597
  invoke void @_ZN5boost7numeric5ublas6vectorIdNS1_15unbounded_arrayIdNSt3__19allocatorIdEEEEED1Ev(%"class.boost::numeric::ublas::vector"* %146)
          to label %617 unwind label %644

; <label>:617:                                    ; preds = %616
  br label %619

; <label>:618:                                    ; preds = %615
  invoke void @_ZN5boost7numeric5ublas6matrixIdNS1_15basic_row_majorImlEENS1_15unbounded_arrayIdNSt3__19allocatorIdEEEEED1Ev(%"class.boost::numeric::ublas::matrix"* %143)
          to label %621 unwind label %558

; <label>:619:                                    ; preds = %617, %566
