; ModuleID = 'Network.cpp'
source_filename = "Network.cpp"
target datalayout = "e-m:o-i64:64-f80:128-n8:16:32:64-S128"
target triple = "x86_64-apple-macosx10.12.0"

%"struct.boost::detail::function::basic_vtable1" = type { %"struct.boost::detail::function::vtable_base", %"class.boost::numeric::ublas::vector"* (%"union.boost::detail::function::function_buffer"*, %"class.boost::numeric::ublas::vector"*)* }
%"struct.boost::detail::function::vtable_base" = type { void (%"union.boost::detail::function::function_buffer"*, %"union.boost::detail::function::function_buffer"*, i32)* }
%"union.boost::detail::function::function_buffer" = type { %"union.boost::detail::function::function_buffer_members" }
%"union.boost::detail::function::function_buffer_members" = type { %"struct.boost::detail::function::function_buffer_members::bound_memfunc_ptr_t" }
%"struct.boost::detail::function::function_buffer_members::bound_memfunc_ptr_t" = type { { i64, i64 }, i8* }
%"class.boost::numeric::ublas::vector" = type { %"class.boost::numeric::ublas::unbounded_array" }
%"class.boost::numeric::ublas::unbounded_array" = type { %"class.std::__1::allocator.18", i64, double* }
%"class.std::__1::allocator.18" = type { i8 }
%"class.std::__1::basic_ostream" = type { i32 (...)**, %"class.std::__1::basic_ios.base" }
%"class.std::__1::basic_ios.base" = type <{ %"class.std::__1::ios_base", %"class.std::__1::basic_ostream"*, i32 }>
%"class.std::__1::ios_base" = type { i32 (...)**, i32, i64, i64, i32, i32, i8*, i8*, void (i32, %"class.std::__1::ios_base"*, i32)**, i32*, i64, i64, i64*, i64, i64, i8**, i64, i64 }
%"class.std::__1::locale::id" = type <{ %"struct.std::__1::once_flag", i32, [4 x i8] }>
%"struct.std::__1::once_flag" = type { i64 }
%class.Network = type { i32 (...)**, double, i32, %"class.std::__1::vector", %"class.std::__1::vector", %"class.std::__1::vector", %"class.std::__1::vector.0", %"class.std::__1::vector", %"class.std::__1::vector.6", %"class.std::__1::vector.6" }
%"class.std::__1::vector.0" = type { %"class.std::__1::__vector_base.1" }
%"class.std::__1::__vector_base.1" = type { %"class.boost::numeric::ublas::matrix"**, %"class.boost::numeric::ublas::matrix"**, %"class.std::__1::__compressed_pair.2" }
%"class.boost::numeric::ublas::matrix" = type { i64, i64, %"class.boost::numeric::ublas::unbounded_array" }
%"class.std::__1::__compressed_pair.2" = type { %"class.std::__1::__libcpp_compressed_pair_imp.3" }
%"class.std::__1::__libcpp_compressed_pair_imp.3" = type { %"class.boost::numeric::ublas::matrix"** }
%"class.std::__1::vector" = type { %"class.std::__1::__vector_base" }
%"class.std::__1::__vector_base" = type { %"class.boost::numeric::ublas::vector"**, %"class.boost::numeric::ublas::vector"**, %"class.std::__1::__compressed_pair" }
%"class.std::__1::__compressed_pair" = type { %"class.std::__1::__libcpp_compressed_pair_imp" }
%"class.std::__1::__libcpp_compressed_pair_imp" = type { %"class.boost::numeric::ublas::vector"** }
%"class.std::__1::vector.6" = type { %"class.std::__1::__vector_base.7" }
%"class.std::__1::__vector_base.7" = type { %"class.boost::function"**, %"class.boost::function"**, %"class.std::__1::__compressed_pair.8" }
%"class.boost::function" = type { %"class.boost::function1" }
%"class.boost::function1" = type { %"class.boost::function_base" }
%"class.boost::function_base" = type { %"struct.boost::detail::function::vtable_base"*, %"union.boost::detail::function::function_buffer" }
%"class.std::__1::__compressed_pair.8" = type { %"class.std::__1::__libcpp_compressed_pair_imp.9" }
%"class.std::__1::__libcpp_compressed_pair_imp.9" = type { %"class.boost::function"** }
%"class.std::__1::vector.12" = type { %"class.std::__1::__vector_base.13" }
%"class.std::__1::__vector_base.13" = type { i32*, i32*, %"class.std::__1::__compressed_pair.14" }
%"class.std::__1::__compressed_pair.14" = type { %"class.std::__1::__libcpp_compressed_pair_imp.15" }
%"class.std::__1::__libcpp_compressed_pair_imp.15" = type { i32* }
%"class.std::__1::allocator.10" = type { i8 }
%"struct.std::__1::vector<boost::function<boost::numeric::ublas::vector<double, boost::numeric::ublas::unbounded_array<double, std::__1::allocator<double> > > *(const boost::numeric::ublas::vector<double, boost::numeric::ublas::unbounded_array<double, std::__1::allocator<double> > > &)> *, std::__1::allocator<boost::function<boost::numeric::ublas::vector<double, boost::numeric::ublas::unbounded_array<double, std::__1::allocator<double> > > *(const boost::numeric::ublas::vector<double, boost::numeric::ublas::unbounded_array<double, std::__1::allocator<double> > > &)> *> >::__RAII_IncreaseAnnotator" = type { i8 }
%"class.std::invalid_argument" = type { %"class.std::logic_error" }
%"class.std::logic_error" = type { %"class.std::exception", %"class.std::__1::__libcpp_refstring" }
%"class.std::exception" = type { i32 (...)** }
%"class.std::__1::__libcpp_refstring" = type { i8* }
%"struct.std::__1::nullptr_t" = type { i8* }
%"class.std::__1::__vector_base_common" = type { i8 }
%"class.std::__1::allocator" = type { i8 }
%"class.std::__1::allocator.4" = type { i8 }
%"struct.std::__1::vector<boost::numeric::ublas::vector<double, boost::numeric::ublas::unbounded_array<double, std::__1::allocator<double> > > *, std::__1::allocator<boost::numeric::ublas::vector<double, boost::numeric::ublas::unbounded_array<double, std::__1::allocator<double> > > *> >::__RAII_IncreaseAnnotator" = type { i8 }
%"class.boost::numeric::ublas::vector<double, boost::numeric::ublas::unbounded_array<double, std::__1::allocator<double> > >::iterator" = type { %"class.boost::numeric::ublas::container_reference", double* }
%"class.boost::numeric::ublas::container_reference" = type { %"class.boost::numeric::ublas::vector"* }
%"struct.std::__1::random_access_iterator_tag" = type { i8 }
%"struct.boost::numeric::ublas::dense_random_access_iterator_tag" = type { i8 }
%"struct.std::__1::vector<boost::numeric::ublas::matrix<double, boost::numeric::ublas::basic_row_major<unsigned long, long>, boost::numeric::ublas::unbounded_array<double, std::__1::allocator<double> > > *, std::__1::allocator<boost::numeric::ublas::matrix<double, boost::numeric::ublas::basic_row_major<unsigned long, long>, boost::numeric::ublas::unbounded_array<double, std::__1::allocator<double> > > *> >::__RAII_IncreaseAnnotator" = type { i8 }
%"class.std::length_error" = type { %"class.std::logic_error" }
%"class.boost::numeric::ublas::vector_binary" = type { %"class.boost::numeric::ublas::matrix_vector_binary1", %"class.boost::numeric::ublas::vector_reference" }
%"class.boost::numeric::ublas::matrix_vector_binary1" = type { %"class.boost::numeric::ublas::matrix_reference", %"class.boost::numeric::ublas::vector_reference" }
%"class.boost::numeric::ublas::matrix_reference" = type { %"class.boost::numeric::ublas::matrix"* }
%"class.boost::numeric::ublas::vector_reference" = type { %"class.boost::numeric::ublas::vector"* }
%"class.boost::numeric::ublas::matrix_expression" = type { i8 }
%"class.boost::numeric::ublas::vector_expression" = type { i8 }
%"class.boost::numeric::ublas::vector_expression.25" = type { i8 }
%"class.boost::numeric::ublas::vector_expression.22" = type { i8 }
%"struct.boost::numeric::ublas::unknown_storage_tag" = type { i8 }
%"struct.boost::numeric::ublas::row_major_tag" = type { i8 }
%"class.boost::bad_function_call" = type { %"class.std::runtime_error" }
%"class.std::runtime_error" = type { %"class.std::exception", %"class.std::__1::__libcpp_refstring" }
%"class.boost::numeric::ublas::matrix_row" = type { %"class.boost::numeric::ublas::matrix_reference.37", i64 }
%"class.boost::numeric::ublas::matrix_reference.37" = type { %"class.boost::numeric::ublas::matrix"* }
%"class.boost::numeric::ublas::vector_binary.41" = type { %"class.boost::numeric::ublas::vector_reference", %"class.boost::numeric::ublas::vector_reference" }
%"class.boost::numeric::ublas::vector_binary.45" = type { %"class.boost::numeric::ublas::vector_reference", %"class.boost::numeric::ublas::vector_reference" }
%"class.boost::numeric::ublas::matrix_vector_binary1.49" = type { %"class.boost::numeric::ublas::matrix_unary2", %"class.boost::numeric::ublas::vector_reference" }
%"class.boost::numeric::ublas::matrix_unary2" = type { %"class.boost::numeric::ublas::matrix_reference.37" }
%"class.boost::numeric::ublas::matrix_binary" = type { %"class.boost::numeric::ublas::matrix_reference", %"class.boost::numeric::ublas::matrix_binary_scalar2" }
%"class.boost::numeric::ublas::matrix_binary_scalar2" = type { %"class.boost::numeric::ublas::vector_matrix_binary", double* }
%"class.boost::numeric::ublas::vector_matrix_binary" = type { %"class.boost::numeric::ublas::vector_reference", %"class.boost::numeric::ublas::vector_reference" }
%"class.boost::numeric::ublas::vector_binary.65" = type { %"class.boost::numeric::ublas::vector_reference", %"class.boost::numeric::ublas::vector_binary_scalar2" }
%"class.boost::numeric::ublas::vector_binary_scalar2" = type { %"class.boost::numeric::ublas::vector_reference", double* }
%"class.boost::numeric::ublas::vector_expression.42" = type { i8 }
%"class.boost::numeric::ublas::vector_expression.46" = type { i8 }
%"class.boost::numeric::ublas::matrix_expression.53" = type { i8 }
%"class.boost::numeric::ublas::vector_expression.50" = type { i8 }
%"class.boost::numeric::ublas::matrix_expression.62" = type { i8 }
%"class.boost::numeric::ublas::matrix_expression.59" = type { i8 }
%"class.boost::numeric::ublas::matrix_expression.56" = type { i8 }
%"class.boost::numeric::ublas::vector_expression.69" = type { i8 }
%"class.boost::numeric::ublas::vector_expression.66" = type { i8 }
%"class.boost::numeric::ublas::matrix_row<boost::numeric::ublas::matrix<double, boost::numeric::ublas::basic_row_major<unsigned long, long>, boost::numeric::ublas::unbounded_array<double, std::__1::allocator<double> > > >::const_iterator" = type { %"class.boost::numeric::ublas::container_const_reference", %"class.boost::numeric::ublas::matrix<double, boost::numeric::ublas::basic_row_major<unsigned long, long>, boost::numeric::ublas::unbounded_array<double, std::__1::allocator<double> > >::const_iterator2" }
%"class.boost::numeric::ublas::container_const_reference" = type { %"class.boost::numeric::ublas::matrix_row"* }
%"class.boost::numeric::ublas::matrix<double, boost::numeric::ublas::basic_row_major<unsigned long, long>, boost::numeric::ublas::unbounded_array<double, std::__1::allocator<double> > >::const_iterator2" = type { %"class.boost::numeric::ublas::container_const_reference.73", double* }
%"class.boost::numeric::ublas::container_const_reference.73" = type { %"class.boost::numeric::ublas::matrix"* }
%"struct.boost::numeric::ublas::random_access_iterator_base.72" = type { i8 }
%"class.std::__1::ctype" = type <{ %"class.std::__1::locale::facet", i32*, i8, [7 x i8] }>
%"class.std::__1::locale::facet" = type { %"class.std::__1::__shared_count" }
%"class.std::__1::__shared_count" = type { i32 (...)**, i64 }
%"class.std::__1::locale" = type { %"class.std::__1::locale::__imp"* }
%"class.std::__1::locale::__imp" = type opaque
%"class.std::__1::basic_ios" = type <{ %"class.std::__1::ios_base", %"class.std::__1::basic_ostream"*, i32, [4 x i8] }>
%"struct.std::__1::integral_constant" = type { i8 }
%"struct.std::__1::__has_destroy" = type { i8 }
%"struct.std::__1::__has_destroy.75" = type { i8 }
%"struct.std::__1::__has_destroy.76" = type { i8 }
%"class.boost::numeric::ublas::vector_container" = type { i8 }
%"class.boost::numeric::ublas::storage_array" = type { i8 }
%"class.boost::numeric::ublas::nonassignable_::nonassignable" = type { i8 }
%"class.boost::numeric::ublas::ublas_expression" = type { i8 }
%"class.boost::numeric::ublas::matrix_container" = type { i8 }
%"class.boost::numeric::ublas::ublas_expression.20" = type { i8 }
%"class.boost::numeric::ublas::ublas_expression.23" = type { i8 }
%"class.boost::numeric::ublas::vector_expression.31" = type { i8 }
%"class.boost::numeric::ublas::ublas_expression.32" = type { i8 }
%"class.boost::numeric::ublas::ublas_expression.26" = type { i8 }
%"class.boost::numeric::ublas::matrix_expression.28" = type { i8 }
%"class.boost::numeric::ublas::ublas_expression.29" = type { i8 }
%"class.boost::numeric::ublas::vector_expression.34" = type { i8 }
%"class.boost::numeric::ublas::ublas_expression.35" = type { i8 }
%"class.boost::numeric::ublas::matrix_expression.38" = type { i8 }
%"class.boost::numeric::ublas::ublas_expression.39" = type { i8 }
%"class.boost::numeric::ublas::ublas_expression.43" = type { i8 }
%"class.boost::numeric::ublas::ublas_expression.47" = type { i8 }
%"class.boost::numeric::ublas::ublas_expression.51" = type { i8 }
%"class.boost::numeric::ublas::ublas_expression.54" = type { i8 }
%"class.boost::numeric::ublas::ublas_expression.57" = type { i8 }
%"class.boost::numeric::ublas::ublas_expression.60" = type { i8 }
%"class.boost::numeric::ublas::ublas_expression.63" = type { i8 }
%"class.boost::numeric::ublas::ublas_expression.67" = type { i8 }
%"class.boost::numeric::ublas::ublas_expression.70" = type { i8 }
%"struct.std::__1::__less" = type { i8 }
%"struct.std::__1::__split_buffer" = type { %"class.boost::function"**, %"class.boost::function"**, %"class.boost::function"**, %"class.std::__1::__compressed_pair.77" }
%"class.std::__1::__compressed_pair.77" = type { %"class.std::__1::__libcpp_compressed_pair_imp.78" }
%"class.std::__1::__libcpp_compressed_pair_imp.78" = type { %"class.boost::function"**, %"class.std::__1::allocator.10"* }
%"struct.std::__1::integral_constant.79" = type { i8 }
%"struct.std::__1::__has_max_size" = type { i8 }
%"class.std::__1::__split_buffer_common" = type { i8 }
%"class.boost::typeindex::stl_type_index" = type { %"class.std::type_info"* }
%"class.std::type_info" = type { i32 (...)**, i8* }
%"struct.boost::detail::function::function_ptr_tag" = type { i8 }
%"struct.boost::detail::function::function_buffer_members::type_t" = type { %"class.std::type_info"*, i8, i8 }
%"class.boost::typeindex::type_index_facade" = type { i8 }
%"struct.boost::numeric::ublas::bad_size" = type { %"class.std::domain_error" }
%"class.std::domain_error" = type { %"class.std::logic_error" }
%"struct.boost::numeric::ublas::bad_index" = type { %"class.std::out_of_range" }
%"class.std::out_of_range" = type { %"class.std::logic_error" }
%"struct.boost::numeric::ublas::random_access_iterator_base" = type { i8 }
%"struct.boost::numeric::ublas::external_logic" = type { %"class.std::logic_error" }
%"struct.std::__1::__split_buffer.80" = type { %"class.boost::numeric::ublas::matrix"**, %"class.boost::numeric::ublas::matrix"**, %"class.boost::numeric::ublas::matrix"**, %"class.std::__1::__compressed_pair.81" }
%"class.std::__1::__compressed_pair.81" = type { %"class.std::__1::__libcpp_compressed_pair_imp.82" }
%"class.std::__1::__libcpp_compressed_pair_imp.82" = type { %"class.boost::numeric::ublas::matrix"**, %"class.std::__1::allocator.4"* }
%"struct.std::__1::__has_max_size.83" = type { i8 }
%"struct.std::__1::__split_buffer.84" = type { %"class.boost::numeric::ublas::vector"**, %"class.boost::numeric::ublas::vector"**, %"class.boost::numeric::ublas::vector"**, %"class.std::__1::__compressed_pair.85" }
%"class.std::__1::__compressed_pair.85" = type { %"class.std::__1::__libcpp_compressed_pair_imp.86" }
%"class.std::__1::__libcpp_compressed_pair_imp.86" = type { %"class.boost::numeric::ublas::vector"**, %"class.std::__1::allocator"* }
%"struct.std::__1::__has_max_size.87" = type { i8 }
%"struct.boost::numeric::ublas::dense_proxy_tag" = type { i8 }
%"struct.boost::numeric::ublas::dense_tag" = type { i8 }
%"struct.boost::numeric::ublas::bad_argument" = type { %"class.std::invalid_argument" }
%"struct.boost::exception_detail::error_info_injector" = type <{ %"class.boost::bad_function_call", %"class.boost::exception.base", [4 x i8] }>
%"class.boost::exception.base" = type <{ i32 (...)**, %"class.boost::exception_detail::refcount_ptr", i8*, i8*, i32 }>
%"class.boost::exception_detail::refcount_ptr" = type { %"struct.boost::exception_detail::error_info_container"* }
%"struct.boost::exception_detail::error_info_container" = type { i32 (...)** }
%"class.boost::exception_detail::clone_impl" = type { %"struct.boost::exception_detail::error_info_injector.base", %"class.boost::exception_detail::clone_base" }
%"struct.boost::exception_detail::error_info_injector.base" = type <{ %"class.boost::bad_function_call", %"class.boost::exception.base" }>
%"class.boost::exception_detail::clone_base" = type { i32 (...)** }
%"class.boost::exception" = type <{ i32 (...)**, %"class.boost::exception_detail::refcount_ptr", i8*, i8*, i32, [4 x i8] }>
%"struct.boost::exception_detail::clone_impl<boost::exception_detail::error_info_injector<boost::bad_function_call> >::clone_tag" = type { i8 }
%"struct.boost::numeric::ublas::random_access_iterator_base.74" = type { i8 }
%"class.std::__1::ostreambuf_iterator" = type { %"class.std::__1::basic_streambuf"* }
%"class.std::__1::basic_streambuf" = type { i32 (...)**, %"class.std::__1::locale", i8*, i8*, i8*, i8*, i8*, i8* }
%"class.std::__1::basic_ostream<char, std::__1::char_traits<char> >::sentry" = type { i8, %"class.std::__1::basic_ostream"* }
%"struct.std::__1::iterator.88" = type { i8 }
%"class.std::__1::allocator.91" = type { i8 }
%"class.std::__1::__libcpp_compressed_pair_imp.90" = type { %"struct.std::__1::basic_string<char, std::__1::char_traits<char>, std::__1::allocator<char> >::__rep" }
%"struct.std::__1::basic_string<char, std::__1::char_traits<char>, std::__1::allocator<char> >::__rep" = type { %union.anon }
%union.anon = type { %"struct.std::__1::basic_string<char, std::__1::char_traits<char>, std::__1::allocator<char> >::__long" }
%"struct.std::__1::basic_string<char, std::__1::char_traits<char>, std::__1::allocator<char> >::__long" = type { i64, i64, i8* }
%"class.std::__1::__compressed_pair.89" = type { %"class.std::__1::__libcpp_compressed_pair_imp.90" }
%"class.std::__1::basic_string" = type { %"class.std::__1::__compressed_pair.89" }
%"class.std::__1::__basic_string_common" = type { i8 }
%"struct.std::__1::basic_string<char, std::__1::char_traits<char>, std::__1::allocator<char> >::__short" = type { %union.anon.93, [23 x i8] }
%union.anon.93 = type { i8 }

@_ZTV7Network = unnamed_addr constant { [4 x i8*] } { [4 x i8*] [i8* null, i8* bitcast ({ i8*, i8* }* @_ZTI7Network to i8*), i8* bitcast (void (%class.Network*)* @_ZN7NetworkD1Ev to i8*), i8* bitcast (void (%class.Network*)* @_ZN7NetworkD0Ev to i8*)] }, align 8
@.str = private unnamed_addr constant [47 x i8] c"Network must contain at least one hidden layer\00", align 1
@_ZTISt16invalid_argument = external constant i8*
@.str.1 = private unnamed_addr constant [27 x i8] c"Invalid number of features\00", align 1
@_ZTISt12length_error = external constant i8*
@.str.2 = private unnamed_addr constant [47 x i8] c"Features and targets must have the same length\00", align 1
@.str.3 = private unnamed_addr constant [10 x i8] c"-> Layer \00", align 1
@.str.4 = private unnamed_addr constant [4 x i8] c" : \00", align 1
@.str.5 = private unnamed_addr constant [11 x i8] c" neuron(s)\00", align 1
@_ZTVN10__cxxabiv117__class_type_infoE = external global i8*
@_ZTS7Network = constant [9 x i8] c"7Network\00"
@_ZTI7Network = constant { i8*, i8* } { i8* bitcast (i8** getelementptr inbounds (i8*, i8** @_ZTVN10__cxxabiv117__class_type_infoE, i64 2) to i8*), i8* getelementptr inbounds ([9 x i8], [9 x i8]* @_ZTS7Network, i32 0, i32 0) }
@_ZTVSt16invalid_argument = external unnamed_addr constant { [5 x i8*] }
@_ZTVSt12length_error = external unnamed_addr constant { [5 x i8*] }
@_ZZN5boost9function1IPNS_7numeric5ublas6vectorIdNS2_15unbounded_arrayIdNSt3__19allocatorIdEEEEEERKS9_E9assign_toIPFSA_SC_EEEvT_E13stored_vtable = linkonce_odr constant %"struct.boost::detail::function::basic_vtable1" { %"struct.boost::detail::function::vtable_base" { void (%"union.boost::detail::function::function_buffer"*, %"union.boost::detail::function::function_buffer"*, i32)* @_ZN5boost6detail8function15functor_managerIPFPNS_7numeric5ublas6vectorIdNS4_15unbounded_arrayIdNSt3__19allocatorIdEEEEEERKSB_EE6manageERKNS1_15function_bufferERSI_NS1_30functor_manager_operation_typeE }, %"class.boost::numeric::ublas::vector"* (%"union.boost::detail::function::function_buffer"*, %"class.boost::numeric::ublas::vector"*)* @_ZN5boost6detail8function17function_invoker1IPFPNS_7numeric5ublas6vectorIdNS4_15unbounded_arrayIdNSt3__19allocatorIdEEEEEERKSB_ESC_SE_E6invokeERNS1_15function_bufferESE_ }, align 8
@_ZTVN10__cxxabiv119__pointer_type_infoE = external global i8*
@_ZTSPFPN5boost7numeric5ublas6vectorIdNS1_15unbounded_arrayIdNSt3__19allocatorIdEEEEEERKS8_E = linkonce_odr constant [88 x i8] c"PFPN5boost7numeric5ublas6vectorIdNS1_15unbounded_arrayIdNSt3__19allocatorIdEEEEEERKS8_E\00"
@_ZTVN10__cxxabiv120__function_type_infoE = external global i8*
@_ZTSFPN5boost7numeric5ublas6vectorIdNS1_15unbounded_arrayIdNSt3__19allocatorIdEEEEEERKS8_E = linkonce_odr constant [87 x i8] c"FPN5boost7numeric5ublas6vectorIdNS1_15unbounded_arrayIdNSt3__19allocatorIdEEEEEERKS8_E\00"
@_ZTIFPN5boost7numeric5ublas6vectorIdNS1_15unbounded_arrayIdNSt3__19allocatorIdEEEEEERKS8_E = linkonce_odr constant { i8*, i8* } { i8* bitcast (i8** getelementptr inbounds (i8*, i8** @_ZTVN10__cxxabiv120__function_type_infoE, i64 2) to i8*), i8* getelementptr inbounds ([87 x i8], [87 x i8]* @_ZTSFPN5boost7numeric5ublas6vectorIdNS1_15unbounded_arrayIdNSt3__19allocatorIdEEEEEERKS8_E, i32 0, i32 0) }
@_ZTIPFPN5boost7numeric5ublas6vectorIdNS1_15unbounded_arrayIdNSt3__19allocatorIdEEEEEERKS8_E = linkonce_odr constant { i8*, i8*, i32, i8* } { i8* bitcast (i8** getelementptr inbounds (i8*, i8** @_ZTVN10__cxxabiv119__pointer_type_infoE, i64 2) to i8*), i8* getelementptr inbounds ([88 x i8], [88 x i8]* @_ZTSPFPN5boost7numeric5ublas6vectorIdNS1_15unbounded_arrayIdNSt3__19allocatorIdEEEEEERKS8_E, i32 0, i32 0), i32 0, i8* bitcast ({ i8*, i8* }* @_ZTIFPN5boost7numeric5ublas6vectorIdNS1_15unbounded_arrayIdNSt3__19allocatorIdEEEEEERKS8_E to i8*) }
@_ZNSt3__14cerrE = external global %"class.std::__1::basic_ostream", align 8
@.str.6 = private unnamed_addr constant [22 x i8] c"Check failed in file \00", align 1
@.str.7 = private unnamed_addr constant [54 x i8] c"/usr/local/include/boost/numeric/ublas/functional.hpp\00", align 1
@.str.8 = private unnamed_addr constant [10 x i8] c" at line \00", align 1
@.str.9 = private unnamed_addr constant [2 x i8] c":\00", align 1
@.str.10 = private unnamed_addr constant [75 x i8] c"size_j == 0 || size_i <= (std::numeric_limits<size_type>::max) () / size_j\00", align 1
@.str.11 = private unnamed_addr constant [9 x i8] c"bad size\00", align 1
@_ZTVN5boost7numeric5ublas8bad_sizeE = linkonce_odr unnamed_addr constant { [5 x i8*] } { [5 x i8*] [i8* null, i8* bitcast ({ i8*, i8*, i8* }* @_ZTIN5boost7numeric5ublas8bad_sizeE to i8*), i8* bitcast (void (%"struct.boost::numeric::ublas::bad_size"*)* @_ZN5boost7numeric5ublas8bad_sizeD1Ev to i8*), i8* bitcast (void (%"struct.boost::numeric::ublas::bad_size"*)* @_ZN5boost7numeric5ublas8bad_sizeD0Ev to i8*), i8* bitcast (i8* (%"class.std::logic_error"*)* @_ZNKSt11logic_error4whatEv to i8*)] }, align 8
@_ZTVN10__cxxabiv120__si_class_type_infoE = external global i8*
@_ZTSN5boost7numeric5ublas8bad_sizeE = linkonce_odr constant [32 x i8] c"N5boost7numeric5ublas8bad_sizeE\00"
@_ZTISt12domain_error = external constant i8*
@_ZTIN5boost7numeric5ublas8bad_sizeE = linkonce_odr constant { i8*, i8*, i8* } { i8* bitcast (i8** getelementptr inbounds (i8*, i8** @_ZTVN10__cxxabiv120__si_class_type_infoE, i64 2) to i8*), i8* getelementptr inbounds ([32 x i8], [32 x i8]* @_ZTSN5boost7numeric5ublas8bad_sizeE, i32 0, i32 0), i8* bitcast (i8** @_ZTISt12domain_error to i8*) }
@_ZTVSt12domain_error = external unnamed_addr constant { [5 x i8*] }
@.str.12 = private unnamed_addr constant [51 x i8] c"/usr/local/include/boost/numeric/ublas/storage.hpp\00", align 1
@.str.13 = private unnamed_addr constant [10 x i8] c"i < size_\00", align 1
@.str.14 = private unnamed_addr constant [10 x i8] c"bad index\00", align 1
@_ZTVN5boost7numeric5ublas9bad_indexE = linkonce_odr unnamed_addr constant { [5 x i8*] } { [5 x i8*] [i8* null, i8* bitcast ({ i8*, i8*, i8* }* @_ZTIN5boost7numeric5ublas9bad_indexE to i8*), i8* bitcast (void (%"struct.boost::numeric::ublas::bad_index"*)* @_ZN5boost7numeric5ublas9bad_indexD1Ev to i8*), i8* bitcast (void (%"struct.boost::numeric::ublas::bad_index"*)* @_ZN5boost7numeric5ublas9bad_indexD0Ev to i8*), i8* bitcast (i8* (%"class.std::logic_error"*)* @_ZNKSt11logic_error4whatEv to i8*)] }, align 8
@_ZTSN5boost7numeric5ublas9bad_indexE = linkonce_odr constant [33 x i8] c"N5boost7numeric5ublas9bad_indexE\00"
@_ZTISt12out_of_range = external constant i8*
@_ZTIN5boost7numeric5ublas9bad_indexE = linkonce_odr constant { i8*, i8*, i8* } { i8* bitcast (i8** getelementptr inbounds (i8*, i8** @_ZTVN10__cxxabiv120__si_class_type_infoE, i64 2) to i8*), i8* getelementptr inbounds ([33 x i8], [33 x i8]* @_ZTSN5boost7numeric5ublas9bad_indexE, i32 0, i32 0), i8* bitcast (i8** @_ZTISt12out_of_range to i8*) }
@_ZTVSt12out_of_range = external unnamed_addr constant { [5 x i8*] }
@.str.15 = private unnamed_addr constant [11 x i8] c"i < size_i\00", align 1
@.str.16 = private unnamed_addr constant [11 x i8] c"j < size_j\00", align 1
@.str.17 = private unnamed_addr constant [61 x i8] c"i <= ((std::numeric_limits<size_type>::max) () - j) / size_j\00", align 1
@.str.18 = private unnamed_addr constant [50 x i8] c"/usr/local/include/boost/numeric/ublas/vector.hpp\00", align 1
@.str.19 = private unnamed_addr constant [62 x i8] c"it_ >= (*this) ().begin ().it_ && it_ < (*this) ().end ().it_\00", align 1
@.str.20 = private unnamed_addr constant [22 x i8] c"&(*this) () == &it ()\00", align 1
@.str.21 = private unnamed_addr constant [15 x i8] c"external logic\00", align 1
@_ZTVN5boost7numeric5ublas14external_logicE = linkonce_odr unnamed_addr constant { [5 x i8*] } { [5 x i8*] [i8* null, i8* bitcast ({ i8*, i8*, i8* }* @_ZTIN5boost7numeric5ublas14external_logicE to i8*), i8* bitcast (void (%"struct.boost::numeric::ublas::external_logic"*)* @_ZN5boost7numeric5ublas14external_logicD1Ev to i8*), i8* bitcast (void (%"struct.boost::numeric::ublas::external_logic"*)* @_ZN5boost7numeric5ublas14external_logicD0Ev to i8*), i8* bitcast (i8* (%"class.std::logic_error"*)* @_ZNKSt11logic_error4whatEv to i8*)] }, align 8
@_ZTSN5boost7numeric5ublas14external_logicE = linkonce_odr constant [39 x i8] c"N5boost7numeric5ublas14external_logicE\00"
@_ZTISt11logic_error = external constant i8*
@_ZTIN5boost7numeric5ublas14external_logicE = linkonce_odr constant { i8*, i8*, i8* } { i8* bitcast (i8** getelementptr inbounds (i8*, i8** @_ZTVN10__cxxabiv120__si_class_type_infoE, i64 2) to i8*), i8* getelementptr inbounds ([39 x i8], [39 x i8]* @_ZTSN5boost7numeric5ublas14external_logicE, i32 0, i32 0), i8* bitcast (i8** @_ZTISt11logic_error to i8*) }
@.str.22 = private unnamed_addr constant [61 x i8] c"/usr/local/include/boost/numeric/ublas/vector_expression.hpp\00", align 1
@.str.23 = private unnamed_addr constant [15 x i8] c"size1 == size2\00", align 1
@.str.24 = private unnamed_addr constant [13 x i8] c"bad argument\00", align 1
@_ZTVN5boost7numeric5ublas12bad_argumentE = linkonce_odr unnamed_addr constant { [5 x i8*] } { [5 x i8*] [i8* null, i8* bitcast ({ i8*, i8*, i8* }* @_ZTIN5boost7numeric5ublas12bad_argumentE to i8*), i8* bitcast (void (%"struct.boost::numeric::ublas::bad_argument"*)* @_ZN5boost7numeric5ublas12bad_argumentD1Ev to i8*), i8* bitcast (void (%"struct.boost::numeric::ublas::bad_argument"*)* @_ZN5boost7numeric5ublas12bad_argumentD0Ev to i8*), i8* bitcast (i8* (%"class.std::logic_error"*)* @_ZNKSt11logic_error4whatEv to i8*)] }, align 8
@_ZTSN5boost7numeric5ublas12bad_argumentE = linkonce_odr constant [37 x i8] c"N5boost7numeric5ublas12bad_argumentE\00"
@_ZTIN5boost7numeric5ublas12bad_argumentE = linkonce_odr constant { i8*, i8*, i8* } { i8* bitcast (i8** getelementptr inbounds (i8*, i8** @_ZTVN10__cxxabiv120__si_class_type_infoE, i64 2) to i8*), i8* getelementptr inbounds ([37 x i8], [37 x i8]* @_ZTSN5boost7numeric5ublas12bad_argumentE, i32 0, i32 0), i8* bitcast (i8** @_ZTISt16invalid_argument to i8*) }
@.str.25 = private unnamed_addr constant [64 x i8] c"/usr/local/include/boost/numeric/ublas/detail/vector_assign.hpp\00", align 1
@_ZTVN10__cxxabiv121__vmi_class_type_infoE = external global i8*
@_ZTSN5boost16exception_detail10clone_implINS0_19error_info_injectorINS_17bad_function_callEEEEE = linkonce_odr constant [92 x i8] c"N5boost16exception_detail10clone_implINS0_19error_info_injectorINS_17bad_function_callEEEEE\00"
@_ZTSN5boost16exception_detail19error_info_injectorINS_17bad_function_callEEE = linkonce_odr constant [73 x i8] c"N5boost16exception_detail19error_info_injectorINS_17bad_function_callEEE\00"
@_ZTSN5boost17bad_function_callE = linkonce_odr constant [28 x i8] c"N5boost17bad_function_callE\00"
@_ZTISt13runtime_error = external constant i8*
@_ZTIN5boost17bad_function_callE = linkonce_odr constant { i8*, i8*, i8* } { i8* bitcast (i8** getelementptr inbounds (i8*, i8** @_ZTVN10__cxxabiv120__si_class_type_infoE, i64 2) to i8*), i8* getelementptr inbounds ([28 x i8], [28 x i8]* @_ZTSN5boost17bad_function_callE, i32 0, i32 0), i8* bitcast (i8** @_ZTISt13runtime_error to i8*) }
@_ZTSN5boost9exceptionE = linkonce_odr constant [19 x i8] c"N5boost9exceptionE\00"
@_ZTIN5boost9exceptionE = linkonce_odr constant { i8*, i8* } { i8* bitcast (i8** getelementptr inbounds (i8*, i8** @_ZTVN10__cxxabiv117__class_type_infoE, i64 2) to i8*), i8* getelementptr inbounds ([19 x i8], [19 x i8]* @_ZTSN5boost9exceptionE, i32 0, i32 0) }
@_ZTIN5boost16exception_detail19error_info_injectorINS_17bad_function_callEEE = linkonce_odr constant { i8*, i8*, i32, i32, i8*, i64, i8*, i64 } { i8* bitcast (i8** getelementptr inbounds (i8*, i8** @_ZTVN10__cxxabiv121__vmi_class_type_infoE, i64 2) to i8*), i8* getelementptr inbounds ([73 x i8], [73 x i8]* @_ZTSN5boost16exception_detail19error_info_injectorINS_17bad_function_callEEE, i32 0, i32 0), i32 0, i32 2, i8* bitcast ({ i8*, i8*, i8* }* @_ZTIN5boost17bad_function_callE to i8*), i64 2, i8* bitcast ({ i8*, i8* }* @_ZTIN5boost9exceptionE to i8*), i64 4098 }
@_ZTSN5boost16exception_detail10clone_baseE = linkonce_odr constant [39 x i8] c"N5boost16exception_detail10clone_baseE\00"
@_ZTIN5boost16exception_detail10clone_baseE = linkonce_odr constant { i8*, i8* } { i8* bitcast (i8** getelementptr inbounds (i8*, i8** @_ZTVN10__cxxabiv117__class_type_infoE, i64 2) to i8*), i8* getelementptr inbounds ([39 x i8], [39 x i8]* @_ZTSN5boost16exception_detail10clone_baseE, i32 0, i32 0) }
@_ZTIN5boost16exception_detail10clone_implINS0_19error_info_injectorINS_17bad_function_callEEEEE = linkonce_odr constant { i8*, i8*, i32, i32, i8*, i64, i8*, i64 } { i8* bitcast (i8** getelementptr inbounds (i8*, i8** @_ZTVN10__cxxabiv121__vmi_class_type_infoE, i64 2) to i8*), i8* getelementptr inbounds ([92 x i8], [92 x i8]* @_ZTSN5boost16exception_detail10clone_implINS0_19error_info_injectorINS_17bad_function_callEEEEE, i32 0, i32 0), i32 0, i32 2, i8* bitcast ({ i8*, i8*, i32, i32, i8*, i64, i8*, i64 }* @_ZTIN5boost16exception_detail19error_info_injectorINS_17bad_function_callEEE to i8*), i64 2, i8* bitcast ({ i8*, i8* }* @_ZTIN5boost16exception_detail10clone_baseE to i8*), i64 -6141 }
@_ZTVN5boost16exception_detail10clone_implINS0_19error_info_injectorINS_17bad_function_callEEEEE = linkonce_odr unnamed_addr constant { [8 x i8*], [4 x i8*], [9 x i8*] } { [8 x i8*] [i8* inttoptr (i64 56 to i8*), i8* null, i8* bitcast ({ i8*, i8*, i32, i32, i8*, i64, i8*, i64 }* @_ZTIN5boost16exception_detail10clone_implINS0_19error_info_injectorINS_17bad_function_callEEEEE to i8*), i8* bitcast (void (%"class.boost::exception_detail::clone_impl"*)* @_ZN5boost16exception_detail10clone_implINS0_19error_info_injectorINS_17bad_function_callEEEED1Ev to i8*), i8* bitcast (void (%"class.boost::exception_detail::clone_impl"*)* @_ZN5boost16exception_detail10clone_implINS0_19error_info_injectorINS_17bad_function_callEEEED0Ev to i8*), i8* bitcast (i8* (%"class.std::runtime_error"*)* @_ZNKSt13runtime_error4whatEv to i8*), i8* bitcast (%"class.boost::exception_detail::clone_base"* (%"class.boost::exception_detail::clone_impl"*)* @_ZNK5boost16exception_detail10clone_implINS0_19error_info_injectorINS_17bad_function_callEEEE5cloneEv to i8*), i8* bitcast (void (%"class.boost::exception_detail::clone_impl"*)* @_ZNK5boost16exception_detail10clone_implINS0_19error_info_injectorINS_17bad_function_callEEEE7rethrowEv to i8*)], [4 x i8*] [i8* inttoptr (i64 -16 to i8*), i8* bitcast ({ i8*, i8*, i32, i32, i8*, i64, i8*, i64 }* @_ZTIN5boost16exception_detail10clone_implINS0_19error_info_injectorINS_17bad_function_callEEEEE to i8*), i8* bitcast (void (%"class.boost::exception_detail::clone_impl"*)* @_ZThn16_N5boost16exception_detail10clone_implINS0_19error_info_injectorINS_17bad_function_callEEEED1Ev to i8*), i8* bitcast (void (%"class.boost::exception_detail::clone_impl"*)* @_ZThn16_N5boost16exception_detail10clone_implINS0_19error_info_injectorINS_17bad_function_callEEEED0Ev to i8*)], [9 x i8*] [i8* inttoptr (i64 -56 to i8*), i8* inttoptr (i64 -56 to i8*), i8* inttoptr (i64 -56 to i8*), i8* inttoptr (i64 -56 to i8*), i8* bitcast ({ i8*, i8*, i32, i32, i8*, i64, i8*, i64 }* @_ZTIN5boost16exception_detail10clone_implINS0_19error_info_injectorINS_17bad_function_callEEEEE to i8*), i8* bitcast (%"class.boost::exception_detail::clone_base"* (%"class.boost::exception_detail::clone_impl"*)* @_ZTv0_n24_NK5boost16exception_detail10clone_implINS0_19error_info_injectorINS_17bad_function_callEEEE5cloneEv to i8*), i8* bitcast (void (%"class.boost::exception_detail::clone_impl"*)* @_ZTv0_n32_NK5boost16exception_detail10clone_implINS0_19error_info_injectorINS_17bad_function_callEEEE7rethrowEv to i8*), i8* bitcast (void (%"class.boost::exception_detail::clone_impl"*)* @_ZTv0_n40_N5boost16exception_detail10clone_implINS0_19error_info_injectorINS_17bad_function_callEEEED1Ev to i8*), i8* bitcast (void (%"class.boost::exception_detail::clone_impl"*)* @_ZTv0_n40_N5boost16exception_detail10clone_implINS0_19error_info_injectorINS_17bad_function_callEEEED0Ev to i8*)] }, align 8
@_ZTTN5boost16exception_detail10clone_implINS0_19error_info_injectorINS_17bad_function_callEEEEE = linkonce_odr unnamed_addr constant [2 x i8*] [i8* bitcast (i8** getelementptr inbounds ({ [8 x i8*], [4 x i8*], [9 x i8*] }, { [8 x i8*], [4 x i8*], [9 x i8*] }* @_ZTVN5boost16exception_detail10clone_implINS0_19error_info_injectorINS_17bad_function_callEEEEE, i32 0, inrange i32 0, i32 3) to i8*), i8* bitcast (i8** getelementptr inbounds ({ [8 x i8*], [4 x i8*], [9 x i8*] }, { [8 x i8*], [4 x i8*], [9 x i8*] }* @_ZTVN5boost16exception_detail10clone_implINS0_19error_info_injectorINS_17bad_function_callEEEEE, i32 0, inrange i32 2, i32 5) to i8*)]
@_ZTVN5boost16exception_detail10clone_baseE = linkonce_odr unnamed_addr constant { [6 x i8*] } { [6 x i8*] [i8* null, i8* bitcast ({ i8*, i8* }* @_ZTIN5boost16exception_detail10clone_baseE to i8*), i8* bitcast (void ()* @__cxa_pure_virtual to i8*), i8* bitcast (void ()* @__cxa_pure_virtual to i8*), i8* bitcast (void (%"class.boost::exception_detail::clone_base"*)* @_ZN5boost16exception_detail10clone_baseD1Ev to i8*), i8* bitcast (void (%"class.boost::exception_detail::clone_base"*)* @_ZN5boost16exception_detail10clone_baseD0Ev to i8*)] }, align 8
@_ZTVN5boost16exception_detail19error_info_injectorINS_17bad_function_callEEE = linkonce_odr unnamed_addr constant { [5 x i8*], [4 x i8*] } { [5 x i8*] [i8* null, i8* bitcast ({ i8*, i8*, i32, i32, i8*, i64, i8*, i64 }* @_ZTIN5boost16exception_detail19error_info_injectorINS_17bad_function_callEEE to i8*), i8* bitcast (void (%"struct.boost::exception_detail::error_info_injector"*)* @_ZN5boost16exception_detail19error_info_injectorINS_17bad_function_callEED1Ev to i8*), i8* bitcast (void (%"struct.boost::exception_detail::error_info_injector"*)* @_ZN5boost16exception_detail19error_info_injectorINS_17bad_function_callEED0Ev to i8*), i8* bitcast (i8* (%"class.std::runtime_error"*)* @_ZNKSt13runtime_error4whatEv to i8*)], [4 x i8*] [i8* inttoptr (i64 -16 to i8*), i8* bitcast ({ i8*, i8*, i32, i32, i8*, i64, i8*, i64 }* @_ZTIN5boost16exception_detail19error_info_injectorINS_17bad_function_callEEE to i8*), i8* bitcast (void (%"struct.boost::exception_detail::error_info_injector"*)* @_ZThn16_N5boost16exception_detail19error_info_injectorINS_17bad_function_callEED1Ev to i8*), i8* bitcast (void (%"struct.boost::exception_detail::error_info_injector"*)* @_ZThn16_N5boost16exception_detail19error_info_injectorINS_17bad_function_callEED0Ev to i8*)] }, align 8
@_ZTVN5boost17bad_function_callE = linkonce_odr unnamed_addr constant { [5 x i8*] } { [5 x i8*] [i8* null, i8* bitcast ({ i8*, i8*, i8* }* @_ZTIN5boost17bad_function_callE to i8*), i8* bitcast (void (%"class.boost::bad_function_call"*)* @_ZN5boost17bad_function_callD1Ev to i8*), i8* bitcast (void (%"class.boost::bad_function_call"*)* @_ZN5boost17bad_function_callD0Ev to i8*), i8* bitcast (i8* (%"class.std::runtime_error"*)* @_ZNKSt13runtime_error4whatEv to i8*)] }, align 8
@_ZTVN5boost9exceptionE = linkonce_odr unnamed_addr constant { [4 x i8*] } { [4 x i8*] [i8* null, i8* bitcast ({ i8*, i8* }* @_ZTIN5boost9exceptionE to i8*), i8* bitcast (void ()* @__cxa_pure_virtual to i8*), i8* bitcast (void ()* @__cxa_pure_virtual to i8*)] }, align 8
@.str.26 = private unnamed_addr constant [30 x i8] c"call to empty boost::function\00", align 1
@.str.27 = private unnamed_addr constant [61 x i8] c"/usr/local/include/boost/numeric/ublas/matrix_expression.hpp\00", align 1
@.str.28 = private unnamed_addr constant [64 x i8] c"/usr/local/include/boost/numeric/ublas/detail/matrix_assign.hpp\00", align 1
@.str.29 = private unnamed_addr constant [12 x i8] c"i <= size_i\00", align 1
@.str.30 = private unnamed_addr constant [12 x i8] c"j <= size_j\00", align 1
@.str.31 = private unnamed_addr constant [76 x i8] c"size_j == 0 || i <= ((std::numeric_limits<size_type>::max) () - j) / size_j\00", align 1
@.str.32 = private unnamed_addr constant [56 x i8] c"/usr/local/include/boost/numeric/ublas/matrix_proxy.hpp\00", align 1
@.str.33 = private unnamed_addr constant [32 x i8] c"(*this) ().same_closure (it ())\00", align 1
@.str.34 = private unnamed_addr constant [50 x i8] c"/usr/local/include/boost/numeric/ublas/matrix.hpp\00", align 1
@.str.35 = private unnamed_addr constant [30 x i8] c"index () < (*this) ().size ()\00", align 1
@.str.36 = private unnamed_addr constant [32 x i8] c"index1 () < (*this) ().size1 ()\00", align 1
@.str.37 = private unnamed_addr constant [32 x i8] c"index2 () < (*this) ().size2 ()\00", align 1
@_ZNSt3__15ctypeIcE2idE = external global %"class.std::__1::locale::id", align 8

; Function Attrs: noinline ssp uwtable
define void @_ZN7NetworkC2ERKNSt3__16vectorIiNS0_9allocatorIiEEEEd(%class.Network*, %"class.std::__1::vector.12"* dereferenceable(24), double) unnamed_addr #0 align 2 personality i8* bitcast (i32 (...)* @__gxx_personality_v0 to i8*) {
  %4 = alloca %"class.std::__1::allocator.10"*, align 8
  %5 = alloca %"class.boost::function"**, align 8
  %6 = alloca %"class.boost::function"**, align 8
  %7 = alloca %"class.boost::function"**, align 8
  %8 = alloca %"class.std::__1::__libcpp_compressed_pair_imp.9"*, align 8
  %9 = alloca %"class.std::__1::__compressed_pair.8"*, align 8
  %10 = alloca %"class.std::__1::__vector_base.7"*, align 8
  %11 = alloca %"class.std::__1::__libcpp_compressed_pair_imp.9"*, align 8
  %12 = alloca %"class.std::__1::__compressed_pair.8"*, align 8
  %13 = alloca %"class.std::__1::__vector_base.7"*, align 8
  %14 = alloca %"class.std::__1::vector.6"*, align 8
  %15 = alloca %"class.boost::function"**, align 8
  %16 = alloca %"struct.std::__1::vector<boost::function<boost::numeric::ublas::vector<double, boost::numeric::ublas::unbounded_array<double, std::__1::allocator<double> > > *(const boost::numeric::ublas::vector<double, boost::numeric::ublas::unbounded_array<double, std::__1::allocator<double> > > &)> *, std::__1::allocator<boost::function<boost::numeric::ublas::vector<double, boost::numeric::ublas::unbounded_array<double, std::__1::allocator<double> > > *(const boost::numeric::ublas::vector<double, boost::numeric::ublas::unbounded_array<double, std::__1::allocator<double> > > &)> *> >::__RAII_IncreaseAnnotator", align 1
  %17 = alloca %"class.std::__1::allocator.10"*, align 8
  %18 = alloca %"class.boost::function"**, align 8
  %19 = alloca %"class.boost::function"**, align 8
  %20 = alloca %"class.boost::function"**, align 8
  %21 = alloca %"class.std::__1::__libcpp_compressed_pair_imp.9"*, align 8
  %22 = alloca %"class.std::__1::__compressed_pair.8"*, align 8
  %23 = alloca %"class.std::__1::__vector_base.7"*, align 8
  %24 = alloca %"class.std::__1::__libcpp_compressed_pair_imp.9"*, align 8
  %25 = alloca %"class.std::__1::__compressed_pair.8"*, align 8
  %26 = alloca %"class.std::__1::__vector_base.7"*, align 8
  %27 = alloca %"class.std::__1::vector.6"*, align 8
  %28 = alloca %"class.boost::function"**, align 8
  %29 = alloca %"struct.std::__1::vector<boost::function<boost::numeric::ublas::vector<double, boost::numeric::ublas::unbounded_array<double, std::__1::allocator<double> > > *(const boost::numeric::ublas::vector<double, boost::numeric::ublas::unbounded_array<double, std::__1::allocator<double> > > &)> *, std::__1::allocator<boost::function<boost::numeric::ublas::vector<double, boost::numeric::ublas::unbounded_array<double, std::__1::allocator<double> > > *(const boost::numeric::ublas::vector<double, boost::numeric::ublas::unbounded_array<double, std::__1::allocator<double> > > &)> *> >::__RAII_IncreaseAnnotator", align 1
  %30 = alloca %"class.std::__1::allocator.10"*, align 8
  %31 = alloca %"class.boost::function"**, align 8
  %32 = alloca %"class.boost::function"**, align 8
  %33 = alloca %"class.boost::function"**, align 8
  %34 = alloca %"class.std::__1::__libcpp_compressed_pair_imp.9"*, align 8
  %35 = alloca %"class.std::__1::__compressed_pair.8"*, align 8
  %36 = alloca %"class.std::__1::__vector_base.7"*, align 8
  %37 = alloca %"class.std::__1::__libcpp_compressed_pair_imp.9"*, align 8
  %38 = alloca %"class.std::__1::__compressed_pair.8"*, align 8
  %39 = alloca %"class.std::__1::__vector_base.7"*, align 8
  %40 = alloca %"class.std::__1::vector.6"*, align 8
  %41 = alloca %"class.boost::function"**, align 8
  %42 = alloca %"struct.std::__1::vector<boost::function<boost::numeric::ublas::vector<double, boost::numeric::ublas::unbounded_array<double, std::__1::allocator<double> > > *(const boost::numeric::ublas::vector<double, boost::numeric::ublas::unbounded_array<double, std::__1::allocator<double> > > &)> *, std::__1::allocator<boost::function<boost::numeric::ublas::vector<double, boost::numeric::ublas::unbounded_array<double, std::__1::allocator<double> > > *(const boost::numeric::ublas::vector<double, boost::numeric::ublas::unbounded_array<double, std::__1::allocator<double> > > &)> *> >::__RAII_IncreaseAnnotator", align 1
  %43 = alloca %"class.std::__1::allocator.10"*, align 8
  %44 = alloca %"class.boost::function"**, align 8
  %45 = alloca %"class.boost::function"**, align 8
  %46 = alloca %"class.boost::function"**, align 8
  %47 = alloca %"class.std::__1::__libcpp_compressed_pair_imp.9"*, align 8
  %48 = alloca %"class.std::__1::__compressed_pair.8"*, align 8
  %49 = alloca %"class.std::__1::__vector_base.7"*, align 8
  %50 = alloca %"class.std::__1::__libcpp_compressed_pair_imp.9"*, align 8
  %51 = alloca %"class.std::__1::__compressed_pair.8"*, align 8
  %52 = alloca %"class.std::__1::__vector_base.7"*, align 8
  %53 = alloca %"class.std::__1::vector.6"*, align 8
  %54 = alloca %"class.boost::function"**, align 8
  %55 = alloca %"struct.std::__1::vector<boost::function<boost::numeric::ublas::vector<double, boost::numeric::ublas::unbounded_array<double, std::__1::allocator<double> > > *(const boost::numeric::ublas::vector<double, boost::numeric::ublas::unbounded_array<double, std::__1::allocator<double> > > &)> *, std::__1::allocator<boost::function<boost::numeric::ublas::vector<double, boost::numeric::ublas::unbounded_array<double, std::__1::allocator<double> > > *(const boost::numeric::ublas::vector<double, boost::numeric::ublas::unbounded_array<double, std::__1::allocator<double> > > &)> *> >::__RAII_IncreaseAnnotator", align 1
  %56 = alloca %"class.std::__1::allocator.10"*, align 8
  %57 = alloca %"class.boost::function"**, align 8
  %58 = alloca %"class.boost::function"**, align 8
  %59 = alloca %"class.boost::function"**, align 8
  %60 = alloca %"class.std::__1::__libcpp_compressed_pair_imp.9"*, align 8
  %61 = alloca %"class.std::__1::__compressed_pair.8"*, align 8
  %62 = alloca %"class.std::__1::__vector_base.7"*, align 8
  %63 = alloca %"class.std::__1::__libcpp_compressed_pair_imp.9"*, align 8
  %64 = alloca %"class.std::__1::__compressed_pair.8"*, align 8
  %65 = alloca %"class.std::__1::__vector_base.7"*, align 8
  %66 = alloca %"class.std::__1::vector.6"*, align 8
  %67 = alloca %"class.boost::function"**, align 8
  %68 = alloca %"struct.std::__1::vector<boost::function<boost::numeric::ublas::vector<double, boost::numeric::ublas::unbounded_array<double, std::__1::allocator<double> > > *(const boost::numeric::ublas::vector<double, boost::numeric::ublas::unbounded_array<double, std::__1::allocator<double> > > &)> *, std::__1::allocator<boost::function<boost::numeric::ublas::vector<double, boost::numeric::ublas::unbounded_array<double, std::__1::allocator<double> > > *(const boost::numeric::ublas::vector<double, boost::numeric::ublas::unbounded_array<double, std::__1::allocator<double> > > &)> *> >::__RAII_IncreaseAnnotator", align 1
  %69 = alloca %"class.std::invalid_argument"*, align 8
  %70 = alloca i8*, align 8
  %71 = alloca %"class.std::invalid_argument"*, align 8
  %72 = alloca i8*, align 8
  %73 = alloca %"class.std::__1::allocator.10"*, align 8
  %74 = alloca %"class.boost::function"**, align 8
  %75 = alloca %"class.boost::function"**, align 8
  %76 = alloca %"class.boost::function"**, align 8
  %77 = alloca %"class.std::__1::__libcpp_compressed_pair_imp.9"*, align 8
  %78 = alloca %"class.std::__1::__compressed_pair.8"*, align 8
  %79 = alloca %"class.std::__1::__vector_base.7"*, align 8
  %80 = alloca %"class.std::__1::__libcpp_compressed_pair_imp.9"*, align 8
  %81 = alloca %"class.std::__1::__compressed_pair.8"*, align 8
  %82 = alloca %"class.std::__1::__vector_base.7"*, align 8
  %83 = alloca %"class.std::__1::vector.6"*, align 8
  %84 = alloca %"class.boost::function"**, align 8
  %85 = alloca %"struct.std::__1::vector<boost::function<boost::numeric::ublas::vector<double, boost::numeric::ublas::unbounded_array<double, std::__1::allocator<double> > > *(const boost::numeric::ublas::vector<double, boost::numeric::ublas::unbounded_array<double, std::__1::allocator<double> > > &)> *, std::__1::allocator<boost::function<boost::numeric::ublas::vector<double, boost::numeric::ublas::unbounded_array<double, std::__1::allocator<double> > > *(const boost::numeric::ublas::vector<double, boost::numeric::ublas::unbounded_array<double, std::__1::allocator<double> > > &)> *> >::__RAII_IncreaseAnnotator", align 1
  %86 = alloca %"class.std::__1::vector.12"*, align 8
  %87 = alloca %"struct.std::__1::nullptr_t"*, align 8
  %88 = alloca i64, align 8
  %89 = alloca %"struct.std::__1::nullptr_t"*, align 8
  %90 = alloca i64, align 8
  %91 = alloca %"struct.std::__1::nullptr_t", align 8
  %92 = alloca %"struct.std::__1::nullptr_t"*, align 8
  %93 = alloca %"struct.std::__1::nullptr_t"*, align 8
  %94 = alloca i64, align 8
  %95 = alloca %"struct.std::__1::nullptr_t"*, align 8
  %96 = alloca i64, align 8
  %97 = alloca %"struct.std::__1::nullptr_t", align 8
  %98 = alloca %"struct.std::__1::nullptr_t"*, align 8
  %99 = alloca %"struct.std::__1::nullptr_t"*, align 8
  %100 = alloca i64, align 8
  %101 = alloca %"struct.std::__1::nullptr_t"*, align 8
  %102 = alloca i64, align 8
  %103 = alloca %"struct.std::__1::nullptr_t", align 8
  %104 = alloca %"struct.std::__1::nullptr_t"*, align 8
  %105 = alloca %"class.boost::function"***, align 8
  %106 = alloca %"class.std::__1::allocator.10"*, align 8
  %107 = alloca %"class.std::__1::__libcpp_compressed_pair_imp.9"*, align 8
  %108 = alloca %"class.boost::function"**, align 8
  %109 = alloca %"class.boost::function"***, align 8
  %110 = alloca %"class.std::__1::__compressed_pair.8"*, align 8
  %111 = alloca %"class.boost::function"**, align 8
  %112 = alloca %"class.std::__1::__compressed_pair.8"*, align 8
  %113 = alloca %"class.boost::function"**, align 8
  %114 = alloca %"class.std::__1::__vector_base_common"*, align 8
  %115 = alloca %"class.std::__1::__vector_base.7"*, align 8
  %116 = alloca %"struct.std::__1::nullptr_t", align 8
  %117 = alloca %"struct.std::__1::nullptr_t", align 8
  %118 = alloca %"struct.std::__1::nullptr_t", align 8
  %119 = alloca %"class.std::__1::vector.6"*, align 8
  %120 = alloca %"class.std::__1::vector.6"*, align 8
  %121 = alloca %"struct.std::__1::nullptr_t"*, align 8
  %122 = alloca i64, align 8
  %123 = alloca %"struct.std::__1::nullptr_t"*, align 8
  %124 = alloca i64, align 8
  %125 = alloca %"struct.std::__1::nullptr_t", align 8
  %126 = alloca %"struct.std::__1::nullptr_t"*, align 8
  %127 = alloca %"struct.std::__1::nullptr_t"*, align 8
  %128 = alloca i64, align 8
  %129 = alloca %"struct.std::__1::nullptr_t"*, align 8
  %130 = alloca i64, align 8
  %131 = alloca %"struct.std::__1::nullptr_t", align 8
  %132 = alloca %"struct.std::__1::nullptr_t"*, align 8
  %133 = alloca %"struct.std::__1::nullptr_t"*, align 8
  %134 = alloca i64, align 8
  %135 = alloca %"struct.std::__1::nullptr_t"*, align 8
  %136 = alloca i64, align 8
  %137 = alloca %"struct.std::__1::nullptr_t", align 8
  %138 = alloca %"struct.std::__1::nullptr_t"*, align 8
  %139 = alloca %"class.boost::function"***, align 8
  %140 = alloca %"class.std::__1::allocator.10"*, align 8
  %141 = alloca %"class.std::__1::__libcpp_compressed_pair_imp.9"*, align 8
  %142 = alloca %"class.boost::function"**, align 8
  %143 = alloca %"class.boost::function"***, align 8
  %144 = alloca %"class.std::__1::__compressed_pair.8"*, align 8
  %145 = alloca %"class.boost::function"**, align 8
  %146 = alloca %"class.std::__1::__compressed_pair.8"*, align 8
  %147 = alloca %"class.boost::function"**, align 8
  %148 = alloca %"class.std::__1::__vector_base_common"*, align 8
  %149 = alloca %"class.std::__1::__vector_base.7"*, align 8
  %150 = alloca %"struct.std::__1::nullptr_t", align 8
  %151 = alloca %"struct.std::__1::nullptr_t", align 8
  %152 = alloca %"struct.std::__1::nullptr_t", align 8
  %153 = alloca %"class.std::__1::vector.6"*, align 8
  %154 = alloca %"class.std::__1::vector.6"*, align 8
  %155 = alloca %"struct.std::__1::nullptr_t"*, align 8
  %156 = alloca i64, align 8
  %157 = alloca %"struct.std::__1::nullptr_t"*, align 8
  %158 = alloca i64, align 8
  %159 = alloca %"struct.std::__1::nullptr_t", align 8
  %160 = alloca %"struct.std::__1::nullptr_t"*, align 8
  %161 = alloca %"struct.std::__1::nullptr_t"*, align 8
  %162 = alloca i64, align 8
  %163 = alloca %"struct.std::__1::nullptr_t"*, align 8
  %164 = alloca i64, align 8
  %165 = alloca %"struct.std::__1::nullptr_t", align 8
  %166 = alloca %"struct.std::__1::nullptr_t"*, align 8
  %167 = alloca %"struct.std::__1::nullptr_t"*, align 8
  %168 = alloca i64, align 8
  %169 = alloca %"struct.std::__1::nullptr_t"*, align 8
  %170 = alloca i64, align 8
  %171 = alloca %"struct.std::__1::nullptr_t", align 8
  %172 = alloca %"struct.std::__1::nullptr_t"*, align 8
  %173 = alloca %"class.boost::numeric::ublas::vector"***, align 8
  %174 = alloca %"class.std::__1::allocator"*, align 8
  %175 = alloca %"class.std::__1::__libcpp_compressed_pair_imp"*, align 8
  %176 = alloca %"class.boost::numeric::ublas::vector"**, align 8
  %177 = alloca %"class.boost::numeric::ublas::vector"***, align 8
  %178 = alloca %"class.std::__1::__compressed_pair"*, align 8
  %179 = alloca %"class.boost::numeric::ublas::vector"**, align 8
  %180 = alloca %"class.std::__1::__compressed_pair"*, align 8
  %181 = alloca %"class.boost::numeric::ublas::vector"**, align 8
  %182 = alloca %"class.std::__1::__vector_base_common"*, align 8
  %183 = alloca %"class.std::__1::__vector_base"*, align 8
  %184 = alloca %"struct.std::__1::nullptr_t", align 8
  %185 = alloca %"struct.std::__1::nullptr_t", align 8
  %186 = alloca %"struct.std::__1::nullptr_t", align 8
  %187 = alloca %"class.std::__1::vector"*, align 8
  %188 = alloca %"class.std::__1::vector"*, align 8
  %189 = alloca %"struct.std::__1::nullptr_t"*, align 8
  %190 = alloca i64, align 8
  %191 = alloca %"struct.std::__1::nullptr_t"*, align 8
  %192 = alloca i64, align 8
  %193 = alloca %"struct.std::__1::nullptr_t", align 8
  %194 = alloca %"struct.std::__1::nullptr_t"*, align 8
  %195 = alloca %"struct.std::__1::nullptr_t"*, align 8
  %196 = alloca i64, align 8
  %197 = alloca %"struct.std::__1::nullptr_t"*, align 8
  %198 = alloca i64, align 8
  %199 = alloca %"struct.std::__1::nullptr_t", align 8
  %200 = alloca %"struct.std::__1::nullptr_t"*, align 8
  %201 = alloca %"struct.std::__1::nullptr_t"*, align 8
  %202 = alloca i64, align 8
  %203 = alloca %"struct.std::__1::nullptr_t"*, align 8
  %204 = alloca i64, align 8
  %205 = alloca %"struct.std::__1::nullptr_t", align 8
  %206 = alloca %"struct.std::__1::nullptr_t"*, align 8
  %207 = alloca %"class.boost::numeric::ublas::matrix"***, align 8
  %208 = alloca %"class.std::__1::allocator.4"*, align 8
  %209 = alloca %"class.std::__1::__libcpp_compressed_pair_imp.3"*, align 8
  %210 = alloca %"class.boost::numeric::ublas::matrix"**, align 8
  %211 = alloca %"class.boost::numeric::ublas::matrix"***, align 8
  %212 = alloca %"class.std::__1::__compressed_pair.2"*, align 8
  %213 = alloca %"class.boost::numeric::ublas::matrix"**, align 8
  %214 = alloca %"class.std::__1::__compressed_pair.2"*, align 8
  %215 = alloca %"class.boost::numeric::ublas::matrix"**, align 8
  %216 = alloca %"class.std::__1::__vector_base_common"*, align 8
  %217 = alloca %"class.std::__1::__vector_base.1"*, align 8
  %218 = alloca %"struct.std::__1::nullptr_t", align 8
  %219 = alloca %"struct.std::__1::nullptr_t", align 8
  %220 = alloca %"struct.std::__1::nullptr_t", align 8
  %221 = alloca %"class.std::__1::vector.0"*, align 8
  %222 = alloca %"class.std::__1::vector.0"*, align 8
  %223 = alloca %"struct.std::__1::nullptr_t"*, align 8
  %224 = alloca i64, align 8
  %225 = alloca %"struct.std::__1::nullptr_t"*, align 8
  %226 = alloca i64, align 8
  %227 = alloca %"struct.std::__1::nullptr_t", align 8
  %228 = alloca %"struct.std::__1::nullptr_t"*, align 8
  %229 = alloca %"struct.std::__1::nullptr_t"*, align 8
  %230 = alloca i64, align 8
  %231 = alloca %"struct.std::__1::nullptr_t"*, align 8
  %232 = alloca i64, align 8
  %233 = alloca %"struct.std::__1::nullptr_t", align 8
  %234 = alloca %"struct.std::__1::nullptr_t"*, align 8
  %235 = alloca %"struct.std::__1::nullptr_t"*, align 8
  %236 = alloca i64, align 8
  %237 = alloca %"struct.std::__1::nullptr_t"*, align 8
  %238 = alloca i64, align 8
  %239 = alloca %"struct.std::__1::nullptr_t", align 8
  %240 = alloca %"struct.std::__1::nullptr_t"*, align 8
  %241 = alloca %"class.boost::numeric::ublas::vector"***, align 8
  %242 = alloca %"class.std::__1::allocator"*, align 8
  %243 = alloca %"class.std::__1::__libcpp_compressed_pair_imp"*, align 8
  %244 = alloca %"class.boost::numeric::ublas::vector"**, align 8
  %245 = alloca %"class.boost::numeric::ublas::vector"***, align 8
  %246 = alloca %"class.std::__1::__compressed_pair"*, align 8
  %247 = alloca %"class.boost::numeric::ublas::vector"**, align 8
  %248 = alloca %"class.std::__1::__compressed_pair"*, align 8
  %249 = alloca %"class.boost::numeric::ublas::vector"**, align 8
  %250 = alloca %"class.std::__1::__vector_base_common"*, align 8
  %251 = alloca %"class.std::__1::__vector_base"*, align 8
  %252 = alloca %"struct.std::__1::nullptr_t", align 8
  %253 = alloca %"struct.std::__1::nullptr_t", align 8
  %254 = alloca %"struct.std::__1::nullptr_t", align 8
  %255 = alloca %"class.std::__1::vector"*, align 8
  %256 = alloca %"class.std::__1::vector"*, align 8
  %257 = alloca %"struct.std::__1::nullptr_t"*, align 8
  %258 = alloca i64, align 8
  %259 = alloca %"struct.std::__1::nullptr_t"*, align 8
  %260 = alloca i64, align 8
  %261 = alloca %"struct.std::__1::nullptr_t", align 8
  %262 = alloca %"struct.std::__1::nullptr_t"*, align 8
  %263 = alloca %"struct.std::__1::nullptr_t"*, align 8
  %264 = alloca i64, align 8
  %265 = alloca %"struct.std::__1::nullptr_t"*, align 8
  %266 = alloca i64, align 8
  %267 = alloca %"struct.std::__1::nullptr_t", align 8
  %268 = alloca %"struct.std::__1::nullptr_t"*, align 8
  %269 = alloca %"struct.std::__1::nullptr_t"*, align 8
  %270 = alloca i64, align 8
  %271 = alloca %"struct.std::__1::nullptr_t"*, align 8
  %272 = alloca i64, align 8
  %273 = alloca %"struct.std::__1::nullptr_t", align 8
  %274 = alloca %"struct.std::__1::nullptr_t"*, align 8
  %275 = alloca %"class.boost::numeric::ublas::vector"***, align 8
  %276 = alloca %"class.std::__1::allocator"*, align 8
  %277 = alloca %"class.std::__1::__libcpp_compressed_pair_imp"*, align 8
  %278 = alloca %"class.boost::numeric::ublas::vector"**, align 8
  %279 = alloca %"class.boost::numeric::ublas::vector"***, align 8
  %280 = alloca %"class.std::__1::__compressed_pair"*, align 8
  %281 = alloca %"class.boost::numeric::ublas::vector"**, align 8
  %282 = alloca %"class.std::__1::__compressed_pair"*, align 8
  %283 = alloca %"class.boost::numeric::ublas::vector"**, align 8
  %284 = alloca %"class.std::__1::__vector_base_common"*, align 8
  %285 = alloca %"class.std::__1::__vector_base"*, align 8
  %286 = alloca %"struct.std::__1::nullptr_t", align 8
  %287 = alloca %"struct.std::__1::nullptr_t", align 8
  %288 = alloca %"struct.std::__1::nullptr_t", align 8
  %289 = alloca %"class.std::__1::vector"*, align 8
  %290 = alloca %"class.std::__1::vector"*, align 8
  %291 = alloca %"struct.std::__1::nullptr_t"*, align 8
  %292 = alloca i64, align 8
  %293 = alloca %"struct.std::__1::nullptr_t"*, align 8
  %294 = alloca i64, align 8
  %295 = alloca %"struct.std::__1::nullptr_t", align 8
  %296 = alloca %"struct.std::__1::nullptr_t"*, align 8
  %297 = alloca %"struct.std::__1::nullptr_t"*, align 8
  %298 = alloca i64, align 8
  %299 = alloca %"struct.std::__1::nullptr_t"*, align 8
  %300 = alloca i64, align 8
  %301 = alloca %"struct.std::__1::nullptr_t", align 8
  %302 = alloca %"struct.std::__1::nullptr_t"*, align 8
  %303 = alloca %"struct.std::__1::nullptr_t"*, align 8
  %304 = alloca i64, align 8
  %305 = alloca %"struct.std::__1::nullptr_t"*, align 8
  %306 = alloca i64, align 8
  %307 = alloca %"struct.std::__1::nullptr_t", align 8
  %308 = alloca %"struct.std::__1::nullptr_t"*, align 8
  %309 = alloca %"class.boost::numeric::ublas::vector"***, align 8
  %310 = alloca %"class.std::__1::allocator"*, align 8
  %311 = alloca %"class.std::__1::__libcpp_compressed_pair_imp"*, align 8
  %312 = alloca %"class.boost::numeric::ublas::vector"**, align 8
  %313 = alloca %"class.boost::numeric::ublas::vector"***, align 8
  %314 = alloca %"class.std::__1::__compressed_pair"*, align 8
  %315 = alloca %"class.boost::numeric::ublas::vector"**, align 8
  %316 = alloca %"class.std::__1::__compressed_pair"*, align 8
  %317 = alloca %"class.boost::numeric::ublas::vector"**, align 8
  %318 = alloca %"class.std::__1::__vector_base_common"*, align 8
  %319 = alloca %"class.std::__1::__vector_base"*, align 8
  %320 = alloca %"struct.std::__1::nullptr_t", align 8
  %321 = alloca %"struct.std::__1::nullptr_t", align 8
  %322 = alloca %"struct.std::__1::nullptr_t", align 8
  %323 = alloca %"class.std::__1::vector"*, align 8
  %324 = alloca %"class.std::__1::vector"*, align 8
  %325 = alloca %"class.std::__1::vector.12"*, align 8
  %326 = alloca %class.Network*, align 8
  %327 = alloca %"class.std::__1::vector.12"*, align 8
  %328 = alloca double, align 8
  %329 = alloca i8*
  %330 = alloca i32
  %331 = alloca %"class.boost::function"*, align 8
  %332 = alloca %"class.boost::function"*, align 8
  %333 = alloca i32, align 4
  %334 = alloca %"class.boost::function"*, align 8
  %335 = alloca %"class.boost::function"*, align 8
  %336 = alloca %"class.boost::function"*, align 8
  %337 = alloca %"class.boost::function"*, align 8
  store %class.Network* %0, %class.Network** %326, align 8
  store %"class.std::__1::vector.12"* %1, %"class.std::__1::vector.12"** %327, align 8
  store double %2, double* %328, align 8
  %338 = load %class.Network*, %class.Network** %326, align 8
  %339 = bitcast %class.Network* %338 to i32 (...)***
  store i32 (...)** bitcast (i8** getelementptr inbounds ({ [4 x i8*] }, { [4 x i8*] }* @_ZTV7Network, i32 0, inrange i32 0, i32 2) to i32 (...)**), i32 (...)*** %339, align 8
  %340 = getelementptr inbounds %class.Network, %class.Network* %338, i32 0, i32 1
  %341 = load double, double* %328, align 8
  store double %341, double* %340, align 8
  %342 = getelementptr inbounds %class.Network, %class.Network* %338, i32 0, i32 2
  %343 = load %"class.std::__1::vector.12"*, %"class.std::__1::vector.12"** %327, align 8
  store %"class.std::__1::vector.12"* %343, %"class.std::__1::vector.12"** %325, align 8
  %344 = load %"class.std::__1::vector.12"*, %"class.std::__1::vector.12"** %325, align 8
  %345 = bitcast %"class.std::__1::vector.12"* %344 to %"class.std::__1::__vector_base.13"*
  %346 = getelementptr inbounds %"class.std::__1::__vector_base.13", %"class.std::__1::__vector_base.13"* %345, i32 0, i32 1
  %347 = load i32*, i32** %346, align 8
  %348 = bitcast %"class.std::__1::vector.12"* %344 to %"class.std::__1::__vector_base.13"*
  %349 = getelementptr inbounds %"class.std::__1::__vector_base.13", %"class.std::__1::__vector_base.13"* %348, i32 0, i32 0
  %350 = load i32*, i32** %349, align 8
  %351 = ptrtoint i32* %347 to i64
  %352 = ptrtoint i32* %350 to i64
  %353 = sub i64 %351, 6999962201922559847
  %354 = sub i64 %353, %352
  %355 = add i64 %354, 6999962201922559847
  %356 = sub i64 %351, %352
  %357 = sdiv exact i64 %355, 4
  %358 = trunc i64 %357 to i32
  store i32 %358, i32* %342, align 8
  %359 = getelementptr inbounds %class.Network, %class.Network* %338, i32 0, i32 3
  store %"class.std::__1::vector"* %359, %"class.std::__1::vector"** %324, align 8
  %360 = load %"class.std::__1::vector"*, %"class.std::__1::vector"** %324, align 8
  store %"class.std::__1::vector"* %360, %"class.std::__1::vector"** %323, align 8
  %361 = load %"class.std::__1::vector"*, %"class.std::__1::vector"** %323, align 8
  %362 = bitcast %"class.std::__1::vector"* %361 to %"class.std::__1::__vector_base"*
  store %"class.std::__1::__vector_base"* %362, %"class.std::__1::__vector_base"** %319, align 8
  %363 = load %"class.std::__1::__vector_base"*, %"class.std::__1::__vector_base"** %319, align 8
  %364 = bitcast %"class.std::__1::__vector_base"* %363 to %"class.std::__1::__vector_base_common"*
  store %"class.std::__1::__vector_base_common"* %364, %"class.std::__1::__vector_base_common"** %318, align 8
  %365 = load %"class.std::__1::__vector_base_common"*, %"class.std::__1::__vector_base_common"** %318, align 8
  %366 = getelementptr inbounds %"class.std::__1::__vector_base", %"class.std::__1::__vector_base"* %363, i32 0, i32 0
  store %"struct.std::__1::nullptr_t"* %295, %"struct.std::__1::nullptr_t"** %293, align 8
  store i64 -1, i64* %294, align 8
  %367 = load %"struct.std::__1::nullptr_t"*, %"struct.std::__1::nullptr_t"** %293, align 8
  %368 = load i64, i64* %294, align 8
  store %"struct.std::__1::nullptr_t"* %367, %"struct.std::__1::nullptr_t"** %291, align 8
  store i64 %368, i64* %292, align 8
  %369 = load %"struct.std::__1::nullptr_t"*, %"struct.std::__1::nullptr_t"** %291, align 8
  %370 = getelementptr inbounds %"struct.std::__1::nullptr_t", %"struct.std::__1::nullptr_t"* %369, i32 0, i32 0
  store i8* null, i8** %370, align 8
  %371 = getelementptr inbounds %"struct.std::__1::nullptr_t", %"struct.std::__1::nullptr_t"* %295, i32 0, i32 0
  %372 = load i8*, i8** %371, align 8
  %373 = getelementptr inbounds %"struct.std::__1::nullptr_t", %"struct.std::__1::nullptr_t"* %320, i32 0, i32 0
  store i8* %372, i8** %373, align 8
  store %"struct.std::__1::nullptr_t"* %320, %"struct.std::__1::nullptr_t"** %296, align 8
  %374 = load %"struct.std::__1::nullptr_t"*, %"struct.std::__1::nullptr_t"** %296, align 8
  store %"class.boost::numeric::ublas::vector"** null, %"class.boost::numeric::ublas::vector"*** %366, align 8
  %375 = getelementptr inbounds %"class.std::__1::__vector_base", %"class.std::__1::__vector_base"* %363, i32 0, i32 1
  store %"struct.std::__1::nullptr_t"* %301, %"struct.std::__1::nullptr_t"** %299, align 8
  store i64 -1, i64* %300, align 8
  %376 = load %"struct.std::__1::nullptr_t"*, %"struct.std::__1::nullptr_t"** %299, align 8
  %377 = load i64, i64* %300, align 8
  store %"struct.std::__1::nullptr_t"* %376, %"struct.std::__1::nullptr_t"** %297, align 8
  store i64 %377, i64* %298, align 8
  %378 = load %"struct.std::__1::nullptr_t"*, %"struct.std::__1::nullptr_t"** %297, align 8
  %379 = getelementptr inbounds %"struct.std::__1::nullptr_t", %"struct.std::__1::nullptr_t"* %378, i32 0, i32 0
  store i8* null, i8** %379, align 8
  %380 = getelementptr inbounds %"struct.std::__1::nullptr_t", %"struct.std::__1::nullptr_t"* %301, i32 0, i32 0
  %381 = load i8*, i8** %380, align 8
  %382 = getelementptr inbounds %"struct.std::__1::nullptr_t", %"struct.std::__1::nullptr_t"* %321, i32 0, i32 0
  store i8* %381, i8** %382, align 8
  store %"struct.std::__1::nullptr_t"* %321, %"struct.std::__1::nullptr_t"** %302, align 8
  %383 = load %"struct.std::__1::nullptr_t"*, %"struct.std::__1::nullptr_t"** %302, align 8
  store %"class.boost::numeric::ublas::vector"** null, %"class.boost::numeric::ublas::vector"*** %375, align 8
  %384 = getelementptr inbounds %"class.std::__1::__vector_base", %"class.std::__1::__vector_base"* %363, i32 0, i32 2
  store %"struct.std::__1::nullptr_t"* %307, %"struct.std::__1::nullptr_t"** %305, align 8
  store i64 -1, i64* %306, align 8
  %385 = load %"struct.std::__1::nullptr_t"*, %"struct.std::__1::nullptr_t"** %305, align 8
  %386 = load i64, i64* %306, align 8
  store %"struct.std::__1::nullptr_t"* %385, %"struct.std::__1::nullptr_t"** %303, align 8
  store i64 %386, i64* %304, align 8
  %387 = load %"struct.std::__1::nullptr_t"*, %"struct.std::__1::nullptr_t"** %303, align 8
  %388 = getelementptr inbounds %"struct.std::__1::nullptr_t", %"struct.std::__1::nullptr_t"* %387, i32 0, i32 0
  store i8* null, i8** %388, align 8
  %389 = getelementptr inbounds %"struct.std::__1::nullptr_t", %"struct.std::__1::nullptr_t"* %307, i32 0, i32 0
  %390 = load i8*, i8** %389, align 8
  %391 = getelementptr inbounds %"struct.std::__1::nullptr_t", %"struct.std::__1::nullptr_t"* %322, i32 0, i32 0
  store i8* %390, i8** %391, align 8
  store %"struct.std::__1::nullptr_t"* %322, %"struct.std::__1::nullptr_t"** %308, align 8
  %392 = load %"struct.std::__1::nullptr_t"*, %"struct.std::__1::nullptr_t"** %308, align 8
  store %"class.std::__1::__compressed_pair"* %384, %"class.std::__1::__compressed_pair"** %316, align 8
  store %"class.boost::numeric::ublas::vector"** null, %"class.boost::numeric::ublas::vector"*** %317, align 8
  %393 = load %"class.std::__1::__compressed_pair"*, %"class.std::__1::__compressed_pair"** %316, align 8
  %394 = load %"class.boost::numeric::ublas::vector"**, %"class.boost::numeric::ublas::vector"*** %317, align 8
  store %"class.std::__1::__compressed_pair"* %393, %"class.std::__1::__compressed_pair"** %314, align 8
  store %"class.boost::numeric::ublas::vector"** %394, %"class.boost::numeric::ublas::vector"*** %315, align 8
  %395 = load %"class.std::__1::__compressed_pair"*, %"class.std::__1::__compressed_pair"** %314, align 8
  %396 = bitcast %"class.std::__1::__compressed_pair"* %395 to %"class.std::__1::__libcpp_compressed_pair_imp"*
  store %"class.boost::numeric::ublas::vector"*** %315, %"class.boost::numeric::ublas::vector"**** %313, align 8
  %397 = load %"class.boost::numeric::ublas::vector"***, %"class.boost::numeric::ublas::vector"**** %313, align 8
  %398 = load %"class.boost::numeric::ublas::vector"**, %"class.boost::numeric::ublas::vector"*** %397, align 8
  store %"class.std::__1::__libcpp_compressed_pair_imp"* %396, %"class.std::__1::__libcpp_compressed_pair_imp"** %311, align 8
  store %"class.boost::numeric::ublas::vector"** %398, %"class.boost::numeric::ublas::vector"*** %312, align 8
  %399 = load %"class.std::__1::__libcpp_compressed_pair_imp"*, %"class.std::__1::__libcpp_compressed_pair_imp"** %311, align 8
  %400 = bitcast %"class.std::__1::__libcpp_compressed_pair_imp"* %399 to %"class.std::__1::allocator"*
  store %"class.std::__1::allocator"* %400, %"class.std::__1::allocator"** %310, align 8
  %401 = load %"class.std::__1::allocator"*, %"class.std::__1::allocator"** %310, align 8
  %402 = getelementptr inbounds %"class.std::__1::__libcpp_compressed_pair_imp", %"class.std::__1::__libcpp_compressed_pair_imp"* %399, i32 0, i32 0
  store %"class.boost::numeric::ublas::vector"*** %312, %"class.boost::numeric::ublas::vector"**** %309, align 8
  %403 = load %"class.boost::numeric::ublas::vector"***, %"class.boost::numeric::ublas::vector"**** %309, align 8
  %404 = load %"class.boost::numeric::ublas::vector"**, %"class.boost::numeric::ublas::vector"*** %403, align 8
  store %"class.boost::numeric::ublas::vector"** %404, %"class.boost::numeric::ublas::vector"*** %402, align 8
  %405 = getelementptr inbounds %class.Network, %class.Network* %338, i32 0, i32 4
  store %"class.std::__1::vector"* %405, %"class.std::__1::vector"** %290, align 8
  %406 = load %"class.std::__1::vector"*, %"class.std::__1::vector"** %290, align 8
  store %"class.std::__1::vector"* %406, %"class.std::__1::vector"** %289, align 8
  %407 = load %"class.std::__1::vector"*, %"class.std::__1::vector"** %289, align 8
  %408 = bitcast %"class.std::__1::vector"* %407 to %"class.std::__1::__vector_base"*
  store %"class.std::__1::__vector_base"* %408, %"class.std::__1::__vector_base"** %285, align 8
  %409 = load %"class.std::__1::__vector_base"*, %"class.std::__1::__vector_base"** %285, align 8
  %410 = bitcast %"class.std::__1::__vector_base"* %409 to %"class.std::__1::__vector_base_common"*
  store %"class.std::__1::__vector_base_common"* %410, %"class.std::__1::__vector_base_common"** %284, align 8
  %411 = load %"class.std::__1::__vector_base_common"*, %"class.std::__1::__vector_base_common"** %284, align 8
  %412 = getelementptr inbounds %"class.std::__1::__vector_base", %"class.std::__1::__vector_base"* %409, i32 0, i32 0
  store %"struct.std::__1::nullptr_t"* %261, %"struct.std::__1::nullptr_t"** %259, align 8
  store i64 -1, i64* %260, align 8
  %413 = load %"struct.std::__1::nullptr_t"*, %"struct.std::__1::nullptr_t"** %259, align 8
  %414 = load i64, i64* %260, align 8
  store %"struct.std::__1::nullptr_t"* %413, %"struct.std::__1::nullptr_t"** %257, align 8
  store i64 %414, i64* %258, align 8
  %415 = load %"struct.std::__1::nullptr_t"*, %"struct.std::__1::nullptr_t"** %257, align 8
  %416 = getelementptr inbounds %"struct.std::__1::nullptr_t", %"struct.std::__1::nullptr_t"* %415, i32 0, i32 0
  store i8* null, i8** %416, align 8
  %417 = getelementptr inbounds %"struct.std::__1::nullptr_t", %"struct.std::__1::nullptr_t"* %261, i32 0, i32 0
  %418 = load i8*, i8** %417, align 8
  %419 = getelementptr inbounds %"struct.std::__1::nullptr_t", %"struct.std::__1::nullptr_t"* %286, i32 0, i32 0
  store i8* %418, i8** %419, align 8
  store %"struct.std::__1::nullptr_t"* %286, %"struct.std::__1::nullptr_t"** %262, align 8
  %420 = load %"struct.std::__1::nullptr_t"*, %"struct.std::__1::nullptr_t"** %262, align 8
  store %"class.boost::numeric::ublas::vector"** null, %"class.boost::numeric::ublas::vector"*** %412, align 8
  %421 = getelementptr inbounds %"class.std::__1::__vector_base", %"class.std::__1::__vector_base"* %409, i32 0, i32 1
  store %"struct.std::__1::nullptr_t"* %267, %"struct.std::__1::nullptr_t"** %265, align 8
  store i64 -1, i64* %266, align 8
  %422 = load %"struct.std::__1::nullptr_t"*, %"struct.std::__1::nullptr_t"** %265, align 8
  %423 = load i64, i64* %266, align 8
  store %"struct.std::__1::nullptr_t"* %422, %"struct.std::__1::nullptr_t"** %263, align 8
  store i64 %423, i64* %264, align 8
  %424 = load %"struct.std::__1::nullptr_t"*, %"struct.std::__1::nullptr_t"** %263, align 8
  %425 = getelementptr inbounds %"struct.std::__1::nullptr_t", %"struct.std::__1::nullptr_t"* %424, i32 0, i32 0
  store i8* null, i8** %425, align 8
  %426 = getelementptr inbounds %"struct.std::__1::nullptr_t", %"struct.std::__1::nullptr_t"* %267, i32 0, i32 0
  %427 = load i8*, i8** %426, align 8
  %428 = getelementptr inbounds %"struct.std::__1::nullptr_t", %"struct.std::__1::nullptr_t"* %287, i32 0, i32 0
  store i8* %427, i8** %428, align 8
  store %"struct.std::__1::nullptr_t"* %287, %"struct.std::__1::nullptr_t"** %268, align 8
  %429 = load %"struct.std::__1::nullptr_t"*, %"struct.std::__1::nullptr_t"** %268, align 8
  store %"class.boost::numeric::ublas::vector"** null, %"class.boost::numeric::ublas::vector"*** %421, align 8
  %430 = getelementptr inbounds %"class.std::__1::__vector_base", %"class.std::__1::__vector_base"* %409, i32 0, i32 2
  store %"struct.std::__1::nullptr_t"* %273, %"struct.std::__1::nullptr_t"** %271, align 8
  store i64 -1, i64* %272, align 8
  %431 = load %"struct.std::__1::nullptr_t"*, %"struct.std::__1::nullptr_t"** %271, align 8
  %432 = load i64, i64* %272, align 8
  store %"struct.std::__1::nullptr_t"* %431, %"struct.std::__1::nullptr_t"** %269, align 8
  store i64 %432, i64* %270, align 8
  %433 = load %"struct.std::__1::nullptr_t"*, %"struct.std::__1::nullptr_t"** %269, align 8
  %434 = getelementptr inbounds %"struct.std::__1::nullptr_t", %"struct.std::__1::nullptr_t"* %433, i32 0, i32 0
  store i8* null, i8** %434, align 8
  %435 = getelementptr inbounds %"struct.std::__1::nullptr_t", %"struct.std::__1::nullptr_t"* %273, i32 0, i32 0
  %436 = load i8*, i8** %435, align 8
  %437 = getelementptr inbounds %"struct.std::__1::nullptr_t", %"struct.std::__1::nullptr_t"* %288, i32 0, i32 0
  store i8* %436, i8** %437, align 8
  store %"struct.std::__1::nullptr_t"* %288, %"struct.std::__1::nullptr_t"** %274, align 8
  %438 = load %"struct.std::__1::nullptr_t"*, %"struct.std::__1::nullptr_t"** %274, align 8
  store %"class.std::__1::__compressed_pair"* %430, %"class.std::__1::__compressed_pair"** %282, align 8
  store %"class.boost::numeric::ublas::vector"** null, %"class.boost::numeric::ublas::vector"*** %283, align 8
  %439 = load %"class.std::__1::__compressed_pair"*, %"class.std::__1::__compressed_pair"** %282, align 8
  %440 = load %"class.boost::numeric::ublas::vector"**, %"class.boost::numeric::ublas::vector"*** %283, align 8
  store %"class.std::__1::__compressed_pair"* %439, %"class.std::__1::__compressed_pair"** %280, align 8
  store %"class.boost::numeric::ublas::vector"** %440, %"class.boost::numeric::ublas::vector"*** %281, align 8
  %441 = load %"class.std::__1::__compressed_pair"*, %"class.std::__1::__compressed_pair"** %280, align 8
  %442 = bitcast %"class.std::__1::__compressed_pair"* %441 to %"class.std::__1::__libcpp_compressed_pair_imp"*
  store %"class.boost::numeric::ublas::vector"*** %281, %"class.boost::numeric::ublas::vector"**** %279, align 8
  %443 = load %"class.boost::numeric::ublas::vector"***, %"class.boost::numeric::ublas::vector"**** %279, align 8
  %444 = load %"class.boost::numeric::ublas::vector"**, %"class.boost::numeric::ublas::vector"*** %443, align 8
  store %"class.std::__1::__libcpp_compressed_pair_imp"* %442, %"class.std::__1::__libcpp_compressed_pair_imp"** %277, align 8
  store %"class.boost::numeric::ublas::vector"** %444, %"class.boost::numeric::ublas::vector"*** %278, align 8
  %445 = load %"class.std::__1::__libcpp_compressed_pair_imp"*, %"class.std::__1::__libcpp_compressed_pair_imp"** %277, align 8
  %446 = bitcast %"class.std::__1::__libcpp_compressed_pair_imp"* %445 to %"class.std::__1::allocator"*
  store %"class.std::__1::allocator"* %446, %"class.std::__1::allocator"** %276, align 8
  %447 = load %"class.std::__1::allocator"*, %"class.std::__1::allocator"** %276, align 8
  %448 = getelementptr inbounds %"class.std::__1::__libcpp_compressed_pair_imp", %"class.std::__1::__libcpp_compressed_pair_imp"* %445, i32 0, i32 0
  store %"class.boost::numeric::ublas::vector"*** %278, %"class.boost::numeric::ublas::vector"**** %275, align 8
  %449 = load %"class.boost::numeric::ublas::vector"***, %"class.boost::numeric::ublas::vector"**** %275, align 8
  %450 = load %"class.boost::numeric::ublas::vector"**, %"class.boost::numeric::ublas::vector"*** %449, align 8
  store %"class.boost::numeric::ublas::vector"** %450, %"class.boost::numeric::ublas::vector"*** %448, align 8
  br label %451

; <label>:451:                                    ; preds = %3
  %452 = getelementptr inbounds %class.Network, %class.Network* %338, i32 0, i32 5
  store %"class.std::__1::vector"* %452, %"class.std::__1::vector"** %256, align 8
  %453 = load %"class.std::__1::vector"*, %"class.std::__1::vector"** %256, align 8
  store %"class.std::__1::vector"* %453, %"class.std::__1::vector"** %255, align 8
  %454 = load %"class.std::__1::vector"*, %"class.std::__1::vector"** %255, align 8
  %455 = bitcast %"class.std::__1::vector"* %454 to %"class.std::__1::__vector_base"*
  store %"class.std::__1::__vector_base"* %455, %"class.std::__1::__vector_base"** %251, align 8
  %456 = load %"class.std::__1::__vector_base"*, %"class.std::__1::__vector_base"** %251, align 8
  %457 = bitcast %"class.std::__1::__vector_base"* %456 to %"class.std::__1::__vector_base_common"*
  store %"class.std::__1::__vector_base_common"* %457, %"class.std::__1::__vector_base_common"** %250, align 8
  %458 = load %"class.std::__1::__vector_base_common"*, %"class.std::__1::__vector_base_common"** %250, align 8
  %459 = getelementptr inbounds %"class.std::__1::__vector_base", %"class.std::__1::__vector_base"* %456, i32 0, i32 0
  store %"struct.std::__1::nullptr_t"* %227, %"struct.std::__1::nullptr_t"** %225, align 8
  store i64 -1, i64* %226, align 8
  %460 = load %"struct.std::__1::nullptr_t"*, %"struct.std::__1::nullptr_t"** %225, align 8
  %461 = load i64, i64* %226, align 8
  store %"struct.std::__1::nullptr_t"* %460, %"struct.std::__1::nullptr_t"** %223, align 8
  store i64 %461, i64* %224, align 8
  %462 = load %"struct.std::__1::nullptr_t"*, %"struct.std::__1::nullptr_t"** %223, align 8
  %463 = getelementptr inbounds %"struct.std::__1::nullptr_t", %"struct.std::__1::nullptr_t"* %462, i32 0, i32 0
  store i8* null, i8** %463, align 8
  %464 = getelementptr inbounds %"struct.std::__1::nullptr_t", %"struct.std::__1::nullptr_t"* %227, i32 0, i32 0
  %465 = load i8*, i8** %464, align 8
  %466 = getelementptr inbounds %"struct.std::__1::nullptr_t", %"struct.std::__1::nullptr_t"* %252, i32 0, i32 0
  store i8* %465, i8** %466, align 8
  store %"struct.std::__1::nullptr_t"* %252, %"struct.std::__1::nullptr_t"** %228, align 8
  %467 = load %"struct.std::__1::nullptr_t"*, %"struct.std::__1::nullptr_t"** %228, align 8
  store %"class.boost::numeric::ublas::vector"** null, %"class.boost::numeric::ublas::vector"*** %459, align 8
  %468 = getelementptr inbounds %"class.std::__1::__vector_base", %"class.std::__1::__vector_base"* %456, i32 0, i32 1
  store %"struct.std::__1::nullptr_t"* %233, %"struct.std::__1::nullptr_t"** %231, align 8
  store i64 -1, i64* %232, align 8
  %469 = load %"struct.std::__1::nullptr_t"*, %"struct.std::__1::nullptr_t"** %231, align 8
  %470 = load i64, i64* %232, align 8
  store %"struct.std::__1::nullptr_t"* %469, %"struct.std::__1::nullptr_t"** %229, align 8
  store i64 %470, i64* %230, align 8
  %471 = load %"struct.std::__1::nullptr_t"*, %"struct.std::__1::nullptr_t"** %229, align 8
  %472 = getelementptr inbounds %"struct.std::__1::nullptr_t", %"struct.std::__1::nullptr_t"* %471, i32 0, i32 0
  store i8* null, i8** %472, align 8
  %473 = getelementptr inbounds %"struct.std::__1::nullptr_t", %"struct.std::__1::nullptr_t"* %233, i32 0, i32 0
  %474 = load i8*, i8** %473, align 8
  %475 = getelementptr inbounds %"struct.std::__1::nullptr_t", %"struct.std::__1::nullptr_t"* %253, i32 0, i32 0
  store i8* %474, i8** %475, align 8
  store %"struct.std::__1::nullptr_t"* %253, %"struct.std::__1::nullptr_t"** %234, align 8
  %476 = load %"struct.std::__1::nullptr_t"*, %"struct.std::__1::nullptr_t"** %234, align 8
  store %"class.boost::numeric::ublas::vector"** null, %"class.boost::numeric::ublas::vector"*** %468, align 8
  %477 = getelementptr inbounds %"class.std::__1::__vector_base", %"class.std::__1::__vector_base"* %456, i32 0, i32 2
  store %"struct.std::__1::nullptr_t"* %239, %"struct.std::__1::nullptr_t"** %237, align 8
  store i64 -1, i64* %238, align 8
  %478 = load %"struct.std::__1::nullptr_t"*, %"struct.std::__1::nullptr_t"** %237, align 8
  %479 = load i64, i64* %238, align 8
  store %"struct.std::__1::nullptr_t"* %478, %"struct.std::__1::nullptr_t"** %235, align 8
  store i64 %479, i64* %236, align 8
  %480 = load %"struct.std::__1::nullptr_t"*, %"struct.std::__1::nullptr_t"** %235, align 8
  %481 = getelementptr inbounds %"struct.std::__1::nullptr_t", %"struct.std::__1::nullptr_t"* %480, i32 0, i32 0
  store i8* null, i8** %481, align 8
  %482 = getelementptr inbounds %"struct.std::__1::nullptr_t", %"struct.std::__1::nullptr_t"* %239, i32 0, i32 0
  %483 = load i8*, i8** %482, align 8
  %484 = getelementptr inbounds %"struct.std::__1::nullptr_t", %"struct.std::__1::nullptr_t"* %254, i32 0, i32 0
  store i8* %483, i8** %484, align 8
  store %"struct.std::__1::nullptr_t"* %254, %"struct.std::__1::nullptr_t"** %240, align 8
  %485 = load %"struct.std::__1::nullptr_t"*, %"struct.std::__1::nullptr_t"** %240, align 8
  store %"class.std::__1::__compressed_pair"* %477, %"class.std::__1::__compressed_pair"** %248, align 8
  store %"class.boost::numeric::ublas::vector"** null, %"class.boost::numeric::ublas::vector"*** %249, align 8
  %486 = load %"class.std::__1::__compressed_pair"*, %"class.std::__1::__compressed_pair"** %248, align 8
  %487 = load %"class.boost::numeric::ublas::vector"**, %"class.boost::numeric::ublas::vector"*** %249, align 8
  store %"class.std::__1::__compressed_pair"* %486, %"class.std::__1::__compressed_pair"** %246, align 8
  store %"class.boost::numeric::ublas::vector"** %487, %"class.boost::numeric::ublas::vector"*** %247, align 8
  %488 = load %"class.std::__1::__compressed_pair"*, %"class.std::__1::__compressed_pair"** %246, align 8
  %489 = bitcast %"class.std::__1::__compressed_pair"* %488 to %"class.std::__1::__libcpp_compressed_pair_imp"*
  store %"class.boost::numeric::ublas::vector"*** %247, %"class.boost::numeric::ublas::vector"**** %245, align 8
  %490 = load %"class.boost::numeric::ublas::vector"***, %"class.boost::numeric::ublas::vector"**** %245, align 8
  %491 = load %"class.boost::numeric::ublas::vector"**, %"class.boost::numeric::ublas::vector"*** %490, align 8
  store %"class.std::__1::__libcpp_compressed_pair_imp"* %489, %"class.std::__1::__libcpp_compressed_pair_imp"** %243, align 8
  store %"class.boost::numeric::ublas::vector"** %491, %"class.boost::numeric::ublas::vector"*** %244, align 8
  %492 = load %"class.std::__1::__libcpp_compressed_pair_imp"*, %"class.std::__1::__libcpp_compressed_pair_imp"** %243, align 8
  %493 = bitcast %"class.std::__1::__libcpp_compressed_pair_imp"* %492 to %"class.std::__1::allocator"*
  store %"class.std::__1::allocator"* %493, %"class.std::__1::allocator"** %242, align 8
  %494 = load %"class.std::__1::allocator"*, %"class.std::__1::allocator"** %242, align 8
  %495 = getelementptr inbounds %"class.std::__1::__libcpp_compressed_pair_imp", %"class.std::__1::__libcpp_compressed_pair_imp"* %492, i32 0, i32 0
  store %"class.boost::numeric::ublas::vector"*** %244, %"class.boost::numeric::ublas::vector"**** %241, align 8
  %496 = load %"class.boost::numeric::ublas::vector"***, %"class.boost::numeric::ublas::vector"**** %241, align 8
  %497 = load %"class.boost::numeric::ublas::vector"**, %"class.boost::numeric::ublas::vector"*** %496, align 8
  store %"class.boost::numeric::ublas::vector"** %497, %"class.boost::numeric::ublas::vector"*** %495, align 8
  br label %498

; <label>:498:                                    ; preds = %451
  %499 = getelementptr inbounds %class.Network, %class.Network* %338, i32 0, i32 6
  store %"class.std::__1::vector.0"* %499, %"class.std::__1::vector.0"** %222, align 8
  %500 = load %"class.std::__1::vector.0"*, %"class.std::__1::vector.0"** %222, align 8
  store %"class.std::__1::vector.0"* %500, %"class.std::__1::vector.0"** %221, align 8
  %501 = load %"class.std::__1::vector.0"*, %"class.std::__1::vector.0"** %221, align 8
  %502 = bitcast %"class.std::__1::vector.0"* %501 to %"class.std::__1::__vector_base.1"*
  store %"class.std::__1::__vector_base.1"* %502, %"class.std::__1::__vector_base.1"** %217, align 8
  %503 = load %"class.std::__1::__vector_base.1"*, %"class.std::__1::__vector_base.1"** %217, align 8
  %504 = bitcast %"class.std::__1::__vector_base.1"* %503 to %"class.std::__1::__vector_base_common"*
  store %"class.std::__1::__vector_base_common"* %504, %"class.std::__1::__vector_base_common"** %216, align 8
  %505 = load %"class.std::__1::__vector_base_common"*, %"class.std::__1::__vector_base_common"** %216, align 8
  %506 = getelementptr inbounds %"class.std::__1::__vector_base.1", %"class.std::__1::__vector_base.1"* %503, i32 0, i32 0
  store %"struct.std::__1::nullptr_t"* %193, %"struct.std::__1::nullptr_t"** %191, align 8
  store i64 -1, i64* %192, align 8
  %507 = load %"struct.std::__1::nullptr_t"*, %"struct.std::__1::nullptr_t"** %191, align 8
  %508 = load i64, i64* %192, align 8
  store %"struct.std::__1::nullptr_t"* %507, %"struct.std::__1::nullptr_t"** %189, align 8
  store i64 %508, i64* %190, align 8
  %509 = load %"struct.std::__1::nullptr_t"*, %"struct.std::__1::nullptr_t"** %189, align 8
  %510 = getelementptr inbounds %"struct.std::__1::nullptr_t", %"struct.std::__1::nullptr_t"* %509, i32 0, i32 0
  store i8* null, i8** %510, align 8
  %511 = getelementptr inbounds %"struct.std::__1::nullptr_t", %"struct.std::__1::nullptr_t"* %193, i32 0, i32 0
  %512 = load i8*, i8** %511, align 8
  %513 = getelementptr inbounds %"struct.std::__1::nullptr_t", %"struct.std::__1::nullptr_t"* %218, i32 0, i32 0
  store i8* %512, i8** %513, align 8
  store %"struct.std::__1::nullptr_t"* %218, %"struct.std::__1::nullptr_t"** %194, align 8
  %514 = load %"struct.std::__1::nullptr_t"*, %"struct.std::__1::nullptr_t"** %194, align 8
  store %"class.boost::numeric::ublas::matrix"** null, %"class.boost::numeric::ublas::matrix"*** %506, align 8
  %515 = getelementptr inbounds %"class.std::__1::__vector_base.1", %"class.std::__1::__vector_base.1"* %503, i32 0, i32 1
  store %"struct.std::__1::nullptr_t"* %199, %"struct.std::__1::nullptr_t"** %197, align 8
  store i64 -1, i64* %198, align 8
  %516 = load %"struct.std::__1::nullptr_t"*, %"struct.std::__1::nullptr_t"** %197, align 8
  %517 = load i64, i64* %198, align 8
  store %"struct.std::__1::nullptr_t"* %516, %"struct.std::__1::nullptr_t"** %195, align 8
  store i64 %517, i64* %196, align 8
  %518 = load %"struct.std::__1::nullptr_t"*, %"struct.std::__1::nullptr_t"** %195, align 8
  %519 = getelementptr inbounds %"struct.std::__1::nullptr_t", %"struct.std::__1::nullptr_t"* %518, i32 0, i32 0
  store i8* null, i8** %519, align 8
  %520 = getelementptr inbounds %"struct.std::__1::nullptr_t", %"struct.std::__1::nullptr_t"* %199, i32 0, i32 0
  %521 = load i8*, i8** %520, align 8
  %522 = getelementptr inbounds %"struct.std::__1::nullptr_t", %"struct.std::__1::nullptr_t"* %219, i32 0, i32 0
  store i8* %521, i8** %522, align 8
  store %"struct.std::__1::nullptr_t"* %219, %"struct.std::__1::nullptr_t"** %200, align 8
  %523 = load %"struct.std::__1::nullptr_t"*, %"struct.std::__1::nullptr_t"** %200, align 8
  store %"class.boost::numeric::ublas::matrix"** null, %"class.boost::numeric::ublas::matrix"*** %515, align 8
  %524 = getelementptr inbounds %"class.std::__1::__vector_base.1", %"class.std::__1::__vector_base.1"* %503, i32 0, i32 2
  store %"struct.std::__1::nullptr_t"* %205, %"struct.std::__1::nullptr_t"** %203, align 8
  store i64 -1, i64* %204, align 8
  %525 = load %"struct.std::__1::nullptr_t"*, %"struct.std::__1::nullptr_t"** %203, align 8
  %526 = load i64, i64* %204, align 8
  store %"struct.std::__1::nullptr_t"* %525, %"struct.std::__1::nullptr_t"** %201, align 8
  store i64 %526, i64* %202, align 8
  %527 = load %"struct.std::__1::nullptr_t"*, %"struct.std::__1::nullptr_t"** %201, align 8
  %528 = getelementptr inbounds %"struct.std::__1::nullptr_t", %"struct.std::__1::nullptr_t"* %527, i32 0, i32 0
  store i8* null, i8** %528, align 8
  %529 = getelementptr inbounds %"struct.std::__1::nullptr_t", %"struct.std::__1::nullptr_t"* %205, i32 0, i32 0
  %530 = load i8*, i8** %529, align 8
  %531 = getelementptr inbounds %"struct.std::__1::nullptr_t", %"struct.std::__1::nullptr_t"* %220, i32 0, i32 0
  store i8* %530, i8** %531, align 8
  store %"struct.std::__1::nullptr_t"* %220, %"struct.std::__1::nullptr_t"** %206, align 8
  %532 = load %"struct.std::__1::nullptr_t"*, %"struct.std::__1::nullptr_t"** %206, align 8
  store %"class.std::__1::__compressed_pair.2"* %524, %"class.std::__1::__compressed_pair.2"** %214, align 8
  store %"class.boost::numeric::ublas::matrix"** null, %"class.boost::numeric::ublas::matrix"*** %215, align 8
  %533 = load %"class.std::__1::__compressed_pair.2"*, %"class.std::__1::__compressed_pair.2"** %214, align 8
  %534 = load %"class.boost::numeric::ublas::matrix"**, %"class.boost::numeric::ublas::matrix"*** %215, align 8
  store %"class.std::__1::__compressed_pair.2"* %533, %"class.std::__1::__compressed_pair.2"** %212, align 8
  store %"class.boost::numeric::ublas::matrix"** %534, %"class.boost::numeric::ublas::matrix"*** %213, align 8
  %535 = load %"class.std::__1::__compressed_pair.2"*, %"class.std::__1::__compressed_pair.2"** %212, align 8
  %536 = bitcast %"class.std::__1::__compressed_pair.2"* %535 to %"class.std::__1::__libcpp_compressed_pair_imp.3"*
  store %"class.boost::numeric::ublas::matrix"*** %213, %"class.boost::numeric::ublas::matrix"**** %211, align 8
  %537 = load %"class.boost::numeric::ublas::matrix"***, %"class.boost::numeric::ublas::matrix"**** %211, align 8
  %538 = load %"class.boost::numeric::ublas::matrix"**, %"class.boost::numeric::ublas::matrix"*** %537, align 8
  store %"class.std::__1::__libcpp_compressed_pair_imp.3"* %536, %"class.std::__1::__libcpp_compressed_pair_imp.3"** %209, align 8
  store %"class.boost::numeric::ublas::matrix"** %538, %"class.boost::numeric::ublas::matrix"*** %210, align 8
  %539 = load %"class.std::__1::__libcpp_compressed_pair_imp.3"*, %"class.std::__1::__libcpp_compressed_pair_imp.3"** %209, align 8
  %540 = bitcast %"class.std::__1::__libcpp_compressed_pair_imp.3"* %539 to %"class.std::__1::allocator.4"*
  store %"class.std::__1::allocator.4"* %540, %"class.std::__1::allocator.4"** %208, align 8
  %541 = load %"class.std::__1::allocator.4"*, %"class.std::__1::allocator.4"** %208, align 8
  %542 = getelementptr inbounds %"class.std::__1::__libcpp_compressed_pair_imp.3", %"class.std::__1::__libcpp_compressed_pair_imp.3"* %539, i32 0, i32 0
  store %"class.boost::numeric::ublas::matrix"*** %210, %"class.boost::numeric::ublas::matrix"**** %207, align 8
  %543 = load %"class.boost::numeric::ublas::matrix"***, %"class.boost::numeric::ublas::matrix"**** %207, align 8
  %544 = load %"class.boost::numeric::ublas::matrix"**, %"class.boost::numeric::ublas::matrix"*** %543, align 8
  store %"class.boost::numeric::ublas::matrix"** %544, %"class.boost::numeric::ublas::matrix"*** %542, align 8
  br label %545

; <label>:545:                                    ; preds = %498
  %546 = getelementptr inbounds %class.Network, %class.Network* %338, i32 0, i32 7
  store %"class.std::__1::vector"* %546, %"class.std::__1::vector"** %188, align 8
  %547 = load %"class.std::__1::vector"*, %"class.std::__1::vector"** %188, align 8
  store %"class.std::__1::vector"* %547, %"class.std::__1::vector"** %187, align 8
  %548 = load %"class.std::__1::vector"*, %"class.std::__1::vector"** %187, align 8
  %549 = bitcast %"class.std::__1::vector"* %548 to %"class.std::__1::__vector_base"*
  store %"class.std::__1::__vector_base"* %549, %"class.std::__1::__vector_base"** %183, align 8
  %550 = load %"class.std::__1::__vector_base"*, %"class.std::__1::__vector_base"** %183, align 8
  %551 = bitcast %"class.std::__1::__vector_base"* %550 to %"class.std::__1::__vector_base_common"*
  store %"class.std::__1::__vector_base_common"* %551, %"class.std::__1::__vector_base_common"** %182, align 8
  %552 = load %"class.std::__1::__vector_base_common"*, %"class.std::__1::__vector_base_common"** %182, align 8
  %553 = getelementptr inbounds %"class.std::__1::__vector_base", %"class.std::__1::__vector_base"* %550, i32 0, i32 0
  store %"struct.std::__1::nullptr_t"* %159, %"struct.std::__1::nullptr_t"** %157, align 8
  store i64 -1, i64* %158, align 8
  %554 = load %"struct.std::__1::nullptr_t"*, %"struct.std::__1::nullptr_t"** %157, align 8
  %555 = load i64, i64* %158, align 8
  store %"struct.std::__1::nullptr_t"* %554, %"struct.std::__1::nullptr_t"** %155, align 8
  store i64 %555, i64* %156, align 8
  %556 = load %"struct.std::__1::nullptr_t"*, %"struct.std::__1::nullptr_t"** %155, align 8
  %557 = getelementptr inbounds %"struct.std::__1::nullptr_t", %"struct.std::__1::nullptr_t"* %556, i32 0, i32 0
  store i8* null, i8** %557, align 8
  %558 = getelementptr inbounds %"struct.std::__1::nullptr_t", %"struct.std::__1::nullptr_t"* %159, i32 0, i32 0
  %559 = load i8*, i8** %558, align 8
  %560 = getelementptr inbounds %"struct.std::__1::nullptr_t", %"struct.std::__1::nullptr_t"* %184, i32 0, i32 0
  store i8* %559, i8** %560, align 8
  store %"struct.std::__1::nullptr_t"* %184, %"struct.std::__1::nullptr_t"** %160, align 8
  %561 = load %"struct.std::__1::nullptr_t"*, %"struct.std::__1::nullptr_t"** %160, align 8
  store %"class.boost::numeric::ublas::vector"** null, %"class.boost::numeric::ublas::vector"*** %553, align 8
  %562 = getelementptr inbounds %"class.std::__1::__vector_base", %"class.std::__1::__vector_base"* %550, i32 0, i32 1
  store %"struct.std::__1::nullptr_t"* %165, %"struct.std::__1::nullptr_t"** %163, align 8
  store i64 -1, i64* %164, align 8
  %563 = load %"struct.std::__1::nullptr_t"*, %"struct.std::__1::nullptr_t"** %163, align 8
  %564 = load i64, i64* %164, align 8
  store %"struct.std::__1::nullptr_t"* %563, %"struct.std::__1::nullptr_t"** %161, align 8
  store i64 %564, i64* %162, align 8
  %565 = load %"struct.std::__1::nullptr_t"*, %"struct.std::__1::nullptr_t"** %161, align 8
  %566 = getelementptr inbounds %"struct.std::__1::nullptr_t", %"struct.std::__1::nullptr_t"* %565, i32 0, i32 0
  store i8* null, i8** %566, align 8
  %567 = getelementptr inbounds %"struct.std::__1::nullptr_t", %"struct.std::__1::nullptr_t"* %165, i32 0, i32 0
  %568 = load i8*, i8** %567, align 8
  %569 = getelementptr inbounds %"struct.std::__1::nullptr_t", %"struct.std::__1::nullptr_t"* %185, i32 0, i32 0
  store i8* %568, i8** %569, align 8
  store %"struct.std::__1::nullptr_t"* %185, %"struct.std::__1::nullptr_t"** %166, align 8
  %570 = load %"struct.std::__1::nullptr_t"*, %"struct.std::__1::nullptr_t"** %166, align 8
  store %"class.boost::numeric::ublas::vector"** null, %"class.boost::numeric::ublas::vector"*** %562, align 8
  %571 = getelementptr inbounds %"class.std::__1::__vector_base", %"class.std::__1::__vector_base"* %550, i32 0, i32 2
  store %"struct.std::__1::nullptr_t"* %171, %"struct.std::__1::nullptr_t"** %169, align 8
  store i64 -1, i64* %170, align 8
  %572 = load %"struct.std::__1::nullptr_t"*, %"struct.std::__1::nullptr_t"** %169, align 8
  %573 = load i64, i64* %170, align 8
  store %"struct.std::__1::nullptr_t"* %572, %"struct.std::__1::nullptr_t"** %167, align 8
  store i64 %573, i64* %168, align 8
  %574 = load %"struct.std::__1::nullptr_t"*, %"struct.std::__1::nullptr_t"** %167, align 8
  %575 = getelementptr inbounds %"struct.std::__1::nullptr_t", %"struct.std::__1::nullptr_t"* %574, i32 0, i32 0
  store i8* null, i8** %575, align 8
  %576 = getelementptr inbounds %"struct.std::__1::nullptr_t", %"struct.std::__1::nullptr_t"* %171, i32 0, i32 0
  %577 = load i8*, i8** %576, align 8
  %578 = getelementptr inbounds %"struct.std::__1::nullptr_t", %"struct.std::__1::nullptr_t"* %186, i32 0, i32 0
  store i8* %577, i8** %578, align 8
  store %"struct.std::__1::nullptr_t"* %186, %"struct.std::__1::nullptr_t"** %172, align 8
  %579 = load %"struct.std::__1::nullptr_t"*, %"struct.std::__1::nullptr_t"** %172, align 8
  store %"class.std::__1::__compressed_pair"* %571, %"class.std::__1::__compressed_pair"** %180, align 8
  store %"class.boost::numeric::ublas::vector"** null, %"class.boost::numeric::ublas::vector"*** %181, align 8
  %580 = load %"class.std::__1::__compressed_pair"*, %"class.std::__1::__compressed_pair"** %180, align 8
  %581 = load %"class.boost::numeric::ublas::vector"**, %"class.boost::numeric::ublas::vector"*** %181, align 8
  store %"class.std::__1::__compressed_pair"* %580, %"class.std::__1::__compressed_pair"** %178, align 8
  store %"class.boost::numeric::ublas::vector"** %581, %"class.boost::numeric::ublas::vector"*** %179, align 8
  %582 = load %"class.std::__1::__compressed_pair"*, %"class.std::__1::__compressed_pair"** %178, align 8
  %583 = bitcast %"class.std::__1::__compressed_pair"* %582 to %"class.std::__1::__libcpp_compressed_pair_imp"*
  store %"class.boost::numeric::ublas::vector"*** %179, %"class.boost::numeric::ublas::vector"**** %177, align 8
  %584 = load %"class.boost::numeric::ublas::vector"***, %"class.boost::numeric::ublas::vector"**** %177, align 8
  %585 = load %"class.boost::numeric::ublas::vector"**, %"class.boost::numeric::ublas::vector"*** %584, align 8
  store %"class.std::__1::__libcpp_compressed_pair_imp"* %583, %"class.std::__1::__libcpp_compressed_pair_imp"** %175, align 8
  store %"class.boost::numeric::ublas::vector"** %585, %"class.boost::numeric::ublas::vector"*** %176, align 8
  %586 = load %"class.std::__1::__libcpp_compressed_pair_imp"*, %"class.std::__1::__libcpp_compressed_pair_imp"** %175, align 8
  %587 = bitcast %"class.std::__1::__libcpp_compressed_pair_imp"* %586 to %"class.std::__1::allocator"*
  store %"class.std::__1::allocator"* %587, %"class.std::__1::allocator"** %174, align 8
  %588 = load %"class.std::__1::allocator"*, %"class.std::__1::allocator"** %174, align 8
  %589 = getelementptr inbounds %"class.std::__1::__libcpp_compressed_pair_imp", %"class.std::__1::__libcpp_compressed_pair_imp"* %586, i32 0, i32 0
  store %"class.boost::numeric::ublas::vector"*** %176, %"class.boost::numeric::ublas::vector"**** %173, align 8
  %590 = load %"class.boost::numeric::ublas::vector"***, %"class.boost::numeric::ublas::vector"**** %173, align 8
  %591 = load %"class.boost::numeric::ublas::vector"**, %"class.boost::numeric::ublas::vector"*** %590, align 8
  store %"class.boost::numeric::ublas::vector"** %591, %"class.boost::numeric::ublas::vector"*** %589, align 8
  br label %592

; <label>:592:                                    ; preds = %545
  %593 = getelementptr inbounds %class.Network, %class.Network* %338, i32 0, i32 8
  store %"class.std::__1::vector.6"* %593, %"class.std::__1::vector.6"** %154, align 8
  %594 = load %"class.std::__1::vector.6"*, %"class.std::__1::vector.6"** %154, align 8
  store %"class.std::__1::vector.6"* %594, %"class.std::__1::vector.6"** %153, align 8
  %595 = load %"class.std::__1::vector.6"*, %"class.std::__1::vector.6"** %153, align 8
  %596 = bitcast %"class.std::__1::vector.6"* %595 to %"class.std::__1::__vector_base.7"*
  store %"class.std::__1::__vector_base.7"* %596, %"class.std::__1::__vector_base.7"** %149, align 8
  %597 = load %"class.std::__1::__vector_base.7"*, %"class.std::__1::__vector_base.7"** %149, align 8
  %598 = bitcast %"class.std::__1::__vector_base.7"* %597 to %"class.std::__1::__vector_base_common"*
  store %"class.std::__1::__vector_base_common"* %598, %"class.std::__1::__vector_base_common"** %148, align 8
  %599 = load %"class.std::__1::__vector_base_common"*, %"class.std::__1::__vector_base_common"** %148, align 8
  %600 = getelementptr inbounds %"class.std::__1::__vector_base.7", %"class.std::__1::__vector_base.7"* %597, i32 0, i32 0
  store %"struct.std::__1::nullptr_t"* %125, %"struct.std::__1::nullptr_t"** %123, align 8
  store i64 -1, i64* %124, align 8
  %601 = load %"struct.std::__1::nullptr_t"*, %"struct.std::__1::nullptr_t"** %123, align 8
  %602 = load i64, i64* %124, align 8
  store %"struct.std::__1::nullptr_t"* %601, %"struct.std::__1::nullptr_t"** %121, align 8
  store i64 %602, i64* %122, align 8
  %603 = load %"struct.std::__1::nullptr_t"*, %"struct.std::__1::nullptr_t"** %121, align 8
  %604 = getelementptr inbounds %"struct.std::__1::nullptr_t", %"struct.std::__1::nullptr_t"* %603, i32 0, i32 0
  store i8* null, i8** %604, align 8
  %605 = getelementptr inbounds %"struct.std::__1::nullptr_t", %"struct.std::__1::nullptr_t"* %125, i32 0, i32 0
  %606 = load i8*, i8** %605, align 8
  %607 = getelementptr inbounds %"struct.std::__1::nullptr_t", %"struct.std::__1::nullptr_t"* %150, i32 0, i32 0
  store i8* %606, i8** %607, align 8
  store %"struct.std::__1::nullptr_t"* %150, %"struct.std::__1::nullptr_t"** %126, align 8
  %608 = load %"struct.std::__1::nullptr_t"*, %"struct.std::__1::nullptr_t"** %126, align 8
  store %"class.boost::function"** null, %"class.boost::function"*** %600, align 8
  %609 = getelementptr inbounds %"class.std::__1::__vector_base.7", %"class.std::__1::__vector_base.7"* %597, i32 0, i32 1
  store %"struct.std::__1::nullptr_t"* %131, %"struct.std::__1::nullptr_t"** %129, align 8
  store i64 -1, i64* %130, align 8
  %610 = load %"struct.std::__1::nullptr_t"*, %"struct.std::__1::nullptr_t"** %129, align 8
  %611 = load i64, i64* %130, align 8
  store %"struct.std::__1::nullptr_t"* %610, %"struct.std::__1::nullptr_t"** %127, align 8
  store i64 %611, i64* %128, align 8
  %612 = load %"struct.std::__1::nullptr_t"*, %"struct.std::__1::nullptr_t"** %127, align 8
  %613 = getelementptr inbounds %"struct.std::__1::nullptr_t", %"struct.std::__1::nullptr_t"* %612, i32 0, i32 0
  store i8* null, i8** %613, align 8
  %614 = getelementptr inbounds %"struct.std::__1::nullptr_t", %"struct.std::__1::nullptr_t"* %131, i32 0, i32 0
  %615 = load i8*, i8** %614, align 8
  %616 = getelementptr inbounds %"struct.std::__1::nullptr_t", %"struct.std::__1::nullptr_t"* %151, i32 0, i32 0
  store i8* %615, i8** %616, align 8
  store %"struct.std::__1::nullptr_t"* %151, %"struct.std::__1::nullptr_t"** %132, align 8
  %617 = load %"struct.std::__1::nullptr_t"*, %"struct.std::__1::nullptr_t"** %132, align 8
  store %"class.boost::function"** null, %"class.boost::function"*** %609, align 8
  %618 = getelementptr inbounds %"class.std::__1::__vector_base.7", %"class.std::__1::__vector_base.7"* %597, i32 0, i32 2
  store %"struct.std::__1::nullptr_t"* %137, %"struct.std::__1::nullptr_t"** %135, align 8
  store i64 -1, i64* %136, align 8
  %619 = load %"struct.std::__1::nullptr_t"*, %"struct.std::__1::nullptr_t"** %135, align 8
  %620 = load i64, i64* %136, align 8
  store %"struct.std::__1::nullptr_t"* %619, %"struct.std::__1::nullptr_t"** %133, align 8
  store i64 %620, i64* %134, align 8
  %621 = load %"struct.std::__1::nullptr_t"*, %"struct.std::__1::nullptr_t"** %133, align 8
  %622 = getelementptr inbounds %"struct.std::__1::nullptr_t", %"struct.std::__1::nullptr_t"* %621, i32 0, i32 0
  store i8* null, i8** %622, align 8
  %623 = getelementptr inbounds %"struct.std::__1::nullptr_t", %"struct.std::__1::nullptr_t"* %137, i32 0, i32 0
  %624 = load i8*, i8** %623, align 8
  %625 = getelementptr inbounds %"struct.std::__1::nullptr_t", %"struct.std::__1::nullptr_t"* %152, i32 0, i32 0
  store i8* %624, i8** %625, align 8
  store %"struct.std::__1::nullptr_t"* %152, %"struct.std::__1::nullptr_t"** %138, align 8
  %626 = load %"struct.std::__1::nullptr_t"*, %"struct.std::__1::nullptr_t"** %138, align 8
  store %"class.std::__1::__compressed_pair.8"* %618, %"class.std::__1::__compressed_pair.8"** %146, align 8
  store %"class.boost::function"** null, %"class.boost::function"*** %147, align 8
  %627 = load %"class.std::__1::__compressed_pair.8"*, %"class.std::__1::__compressed_pair.8"** %146, align 8
  %628 = load %"class.boost::function"**, %"class.boost::function"*** %147, align 8
  store %"class.std::__1::__compressed_pair.8"* %627, %"class.std::__1::__compressed_pair.8"** %144, align 8
  store %"class.boost::function"** %628, %"class.boost::function"*** %145, align 8
  %629 = load %"class.std::__1::__compressed_pair.8"*, %"class.std::__1::__compressed_pair.8"** %144, align 8
  %630 = bitcast %"class.std::__1::__compressed_pair.8"* %629 to %"class.std::__1::__libcpp_compressed_pair_imp.9"*
  store %"class.boost::function"*** %145, %"class.boost::function"**** %143, align 8
  %631 = load %"class.boost::function"***, %"class.boost::function"**** %143, align 8
  %632 = load %"class.boost::function"**, %"class.boost::function"*** %631, align 8
  store %"class.std::__1::__libcpp_compressed_pair_imp.9"* %630, %"class.std::__1::__libcpp_compressed_pair_imp.9"** %141, align 8
  store %"class.boost::function"** %632, %"class.boost::function"*** %142, align 8
  %633 = load %"class.std::__1::__libcpp_compressed_pair_imp.9"*, %"class.std::__1::__libcpp_compressed_pair_imp.9"** %141, align 8
  %634 = bitcast %"class.std::__1::__libcpp_compressed_pair_imp.9"* %633 to %"class.std::__1::allocator.10"*
  store %"class.std::__1::allocator.10"* %634, %"class.std::__1::allocator.10"** %140, align 8
  %635 = load %"class.std::__1::allocator.10"*, %"class.std::__1::allocator.10"** %140, align 8
  %636 = getelementptr inbounds %"class.std::__1::__libcpp_compressed_pair_imp.9", %"class.std::__1::__libcpp_compressed_pair_imp.9"* %633, i32 0, i32 0
  store %"class.boost::function"*** %142, %"class.boost::function"**** %139, align 8
  %637 = load %"class.boost::function"***, %"class.boost::function"**** %139, align 8
  %638 = load %"class.boost::function"**, %"class.boost::function"*** %637, align 8
  store %"class.boost::function"** %638, %"class.boost::function"*** %636, align 8
  br label %639

; <label>:639:                                    ; preds = %592
  %640 = getelementptr inbounds %class.Network, %class.Network* %338, i32 0, i32 9
  store %"class.std::__1::vector.6"* %640, %"class.std::__1::vector.6"** %120, align 8
  %641 = load %"class.std::__1::vector.6"*, %"class.std::__1::vector.6"** %120, align 8
  store %"class.std::__1::vector.6"* %641, %"class.std::__1::vector.6"** %119, align 8
  %642 = load %"class.std::__1::vector.6"*, %"class.std::__1::vector.6"** %119, align 8
  %643 = bitcast %"class.std::__1::vector.6"* %642 to %"class.std::__1::__vector_base.7"*
  store %"class.std::__1::__vector_base.7"* %643, %"class.std::__1::__vector_base.7"** %115, align 8
  %644 = load %"class.std::__1::__vector_base.7"*, %"class.std::__1::__vector_base.7"** %115, align 8
  %645 = bitcast %"class.std::__1::__vector_base.7"* %644 to %"class.std::__1::__vector_base_common"*
  store %"class.std::__1::__vector_base_common"* %645, %"class.std::__1::__vector_base_common"** %114, align 8
  %646 = load %"class.std::__1::__vector_base_common"*, %"class.std::__1::__vector_base_common"** %114, align 8
  %647 = getelementptr inbounds %"class.std::__1::__vector_base.7", %"class.std::__1::__vector_base.7"* %644, i32 0, i32 0
  store %"struct.std::__1::nullptr_t"* %91, %"struct.std::__1::nullptr_t"** %89, align 8
  store i64 -1, i64* %90, align 8
  %648 = load %"struct.std::__1::nullptr_t"*, %"struct.std::__1::nullptr_t"** %89, align 8
  %649 = load i64, i64* %90, align 8
  store %"struct.std::__1::nullptr_t"* %648, %"struct.std::__1::nullptr_t"** %87, align 8
  store i64 %649, i64* %88, align 8
  %650 = load %"struct.std::__1::nullptr_t"*, %"struct.std::__1::nullptr_t"** %87, align 8
  %651 = getelementptr inbounds %"struct.std::__1::nullptr_t", %"struct.std::__1::nullptr_t"* %650, i32 0, i32 0
  store i8* null, i8** %651, align 8
  %652 = getelementptr inbounds %"struct.std::__1::nullptr_t", %"struct.std::__1::nullptr_t"* %91, i32 0, i32 0
  %653 = load i8*, i8** %652, align 8
  %654 = getelementptr inbounds %"struct.std::__1::nullptr_t", %"struct.std::__1::nullptr_t"* %116, i32 0, i32 0
  store i8* %653, i8** %654, align 8
  store %"struct.std::__1::nullptr_t"* %116, %"struct.std::__1::nullptr_t"** %92, align 8
  %655 = load %"struct.std::__1::nullptr_t"*, %"struct.std::__1::nullptr_t"** %92, align 8
  store %"class.boost::function"** null, %"class.boost::function"*** %647, align 8
  %656 = getelementptr inbounds %"class.std::__1::__vector_base.7", %"class.std::__1::__vector_base.7"* %644, i32 0, i32 1
  store %"struct.std::__1::nullptr_t"* %97, %"struct.std::__1::nullptr_t"** %95, align 8
  store i64 -1, i64* %96, align 8
  %657 = load %"struct.std::__1::nullptr_t"*, %"struct.std::__1::nullptr_t"** %95, align 8
  %658 = load i64, i64* %96, align 8
  store %"struct.std::__1::nullptr_t"* %657, %"struct.std::__1::nullptr_t"** %93, align 8
  store i64 %658, i64* %94, align 8
  %659 = load %"struct.std::__1::nullptr_t"*, %"struct.std::__1::nullptr_t"** %93, align 8
  %660 = getelementptr inbounds %"struct.std::__1::nullptr_t", %"struct.std::__1::nullptr_t"* %659, i32 0, i32 0
  store i8* null, i8** %660, align 8
  %661 = getelementptr inbounds %"struct.std::__1::nullptr_t", %"struct.std::__1::nullptr_t"* %97, i32 0, i32 0
  %662 = load i8*, i8** %661, align 8
  %663 = getelementptr inbounds %"struct.std::__1::nullptr_t", %"struct.std::__1::nullptr_t"* %117, i32 0, i32 0
  store i8* %662, i8** %663, align 8
  store %"struct.std::__1::nullptr_t"* %117, %"struct.std::__1::nullptr_t"** %98, align 8
  %664 = load %"struct.std::__1::nullptr_t"*, %"struct.std::__1::nullptr_t"** %98, align 8
  store %"class.boost::function"** null, %"class.boost::function"*** %656, align 8
  %665 = getelementptr inbounds %"class.std::__1::__vector_base.7", %"class.std::__1::__vector_base.7"* %644, i32 0, i32 2
  store %"struct.std::__1::nullptr_t"* %103, %"struct.std::__1::nullptr_t"** %101, align 8
  store i64 -1, i64* %102, align 8
  %666 = load %"struct.std::__1::nullptr_t"*, %"struct.std::__1::nullptr_t"** %101, align 8
  %667 = load i64, i64* %102, align 8
  store %"struct.std::__1::nullptr_t"* %666, %"struct.std::__1::nullptr_t"** %99, align 8
  store i64 %667, i64* %100, align 8
  %668 = load %"struct.std::__1::nullptr_t"*, %"struct.std::__1::nullptr_t"** %99, align 8
  %669 = getelementptr inbounds %"struct.std::__1::nullptr_t", %"struct.std::__1::nullptr_t"* %668, i32 0, i32 0
  store i8* null, i8** %669, align 8
  %670 = getelementptr inbounds %"struct.std::__1::nullptr_t", %"struct.std::__1::nullptr_t"* %103, i32 0, i32 0
  %671 = load i8*, i8** %670, align 8
  %672 = getelementptr inbounds %"struct.std::__1::nullptr_t", %"struct.std::__1::nullptr_t"* %118, i32 0, i32 0
  store i8* %671, i8** %672, align 8
  store %"struct.std::__1::nullptr_t"* %118, %"struct.std::__1::nullptr_t"** %104, align 8
  %673 = load %"struct.std::__1::nullptr_t"*, %"struct.std::__1::nullptr_t"** %104, align 8
  store %"class.std::__1::__compressed_pair.8"* %665, %"class.std::__1::__compressed_pair.8"** %112, align 8
  store %"class.boost::function"** null, %"class.boost::function"*** %113, align 8
  %674 = load %"class.std::__1::__compressed_pair.8"*, %"class.std::__1::__compressed_pair.8"** %112, align 8
  %675 = load %"class.boost::function"**, %"class.boost::function"*** %113, align 8
  store %"class.std::__1::__compressed_pair.8"* %674, %"class.std::__1::__compressed_pair.8"** %110, align 8
  store %"class.boost::function"** %675, %"class.boost::function"*** %111, align 8
  %676 = load %"class.std::__1::__compressed_pair.8"*, %"class.std::__1::__compressed_pair.8"** %110, align 8
  %677 = bitcast %"class.std::__1::__compressed_pair.8"* %676 to %"class.std::__1::__libcpp_compressed_pair_imp.9"*
  store %"class.boost::function"*** %111, %"class.boost::function"**** %109, align 8
  %678 = load %"class.boost::function"***, %"class.boost::function"**** %109, align 8
  %679 = load %"class.boost::function"**, %"class.boost::function"*** %678, align 8
  store %"class.std::__1::__libcpp_compressed_pair_imp.9"* %677, %"class.std::__1::__libcpp_compressed_pair_imp.9"** %107, align 8
  store %"class.boost::function"** %679, %"class.boost::function"*** %108, align 8
  %680 = load %"class.std::__1::__libcpp_compressed_pair_imp.9"*, %"class.std::__1::__libcpp_compressed_pair_imp.9"** %107, align 8
  %681 = bitcast %"class.std::__1::__libcpp_compressed_pair_imp.9"* %680 to %"class.std::__1::allocator.10"*
  store %"class.std::__1::allocator.10"* %681, %"class.std::__1::allocator.10"** %106, align 8
  %682 = load %"class.std::__1::allocator.10"*, %"class.std::__1::allocator.10"** %106, align 8
  %683 = getelementptr inbounds %"class.std::__1::__libcpp_compressed_pair_imp.9", %"class.std::__1::__libcpp_compressed_pair_imp.9"* %680, i32 0, i32 0
  store %"class.boost::function"*** %108, %"class.boost::function"**** %105, align 8
  %684 = load %"class.boost::function"***, %"class.boost::function"**** %105, align 8
  %685 = load %"class.boost::function"**, %"class.boost::function"*** %684, align 8
  store %"class.boost::function"** %685, %"class.boost::function"*** %683, align 8
  br label %686

; <label>:686:                                    ; preds = %639
  %687 = load %"class.std::__1::vector.12"*, %"class.std::__1::vector.12"** %327, align 8
  store %"class.std::__1::vector.12"* %687, %"class.std::__1::vector.12"** %86, align 8
  %688 = load %"class.std::__1::vector.12"*, %"class.std::__1::vector.12"** %86, align 8
  %689 = bitcast %"class.std::__1::vector.12"* %688 to %"class.std::__1::__vector_base.13"*
  %690 = getelementptr inbounds %"class.std::__1::__vector_base.13", %"class.std::__1::__vector_base.13"* %689, i32 0, i32 1
  %691 = load i32*, i32** %690, align 8
  %692 = bitcast %"class.std::__1::vector.12"* %688 to %"class.std::__1::__vector_base.13"*
  %693 = getelementptr inbounds %"class.std::__1::__vector_base.13", %"class.std::__1::__vector_base.13"* %692, i32 0, i32 0
  %694 = load i32*, i32** %693, align 8
  %695 = ptrtoint i32* %691 to i64
  %696 = ptrtoint i32* %694 to i64
  %697 = sub i64 0, %696
  %698 = add i64 %695, %697
  %699 = sub i64 %695, %696
  %700 = sdiv exact i64 %698, 4
  %701 = icmp ult i64 %700, 3
  br i1 %701, label %702, label %745

; <label>:702:                                    ; preds = %686
  %703 = call i8* @__cxa_allocate_exception(i64 16) #11
  %704 = bitcast i8* %703 to %"class.std::invalid_argument"*
  store %"class.std::invalid_argument"* %704, %"class.std::invalid_argument"** %71, align 8
  store i8* getelementptr inbounds ([47 x i8], [47 x i8]* @.str, i32 0, i32 0), i8** %72, align 8
  %705 = load %"class.std::invalid_argument"*, %"class.std::invalid_argument"** %71, align 8
  %706 = load i8*, i8** %72, align 8
  store %"class.std::invalid_argument"* %705, %"class.std::invalid_argument"** %69, align 8
  store i8* %706, i8** %70, align 8
  %707 = load %"class.std::invalid_argument"*, %"class.std::invalid_argument"** %69, align 8
  %708 = bitcast %"class.std::invalid_argument"* %707 to %"class.std::logic_error"*
  %709 = load i8*, i8** %70, align 8
  invoke void @_ZNSt11logic_errorC2EPKc(%"class.std::logic_error"* %708, i8* %709)
          to label %710 unwind label %737

; <label>:710:                                    ; preds = %702
  %711 = bitcast %"class.std::invalid_argument"* %707 to i32 (...)***
  store i32 (...)** bitcast (i8** getelementptr inbounds ({ [5 x i8*] }, { [5 x i8*] }* @_ZTVSt16invalid_argument, i32 0, inrange i32 0, i32 2) to i32 (...)**), i32 (...)*** %711, align 8
  br label %712

; <label>:712:                                    ; preds = %710
  invoke void @__cxa_throw(i8* %703, i8* bitcast (i8** @_ZTISt16invalid_argument to i8*), i8* bitcast (void (%"class.std::invalid_argument"*)* @_ZNSt16invalid_argumentD1Ev to i8*)) #12
          to label %1070 unwind label %741
                                                  ; No predecessors!
  %714 = landingpad { i8*, i32 }
          cleanup
  %715 = extractvalue { i8*, i32 } %714, 0
  store i8* %715, i8** %329, align 8
  %716 = extractvalue { i8*, i32 } %714, 1
  store i32 %716, i32* %330, align 4
  br label %1060
                                                  ; No predecessors!
  %718 = landingpad { i8*, i32 }
          cleanup
  %719 = extractvalue { i8*, i32 } %718, 0
  store i8* %719, i8** %329, align 8
  %720 = extractvalue { i8*, i32 } %718, 1
  store i32 %720, i32* %330, align 4
  br label %1058
                                                  ; No predecessors!
  %722 = landingpad { i8*, i32 }
          cleanup
  %723 = extractvalue { i8*, i32 } %722, 0
  store i8* %723, i8** %329, align 8
  %724 = extractvalue { i8*, i32 } %722, 1
  store i32 %724, i32* %330, align 4
  br label %1056
                                                  ; No predecessors!
  %726 = landingpad { i8*, i32 }
          cleanup
  %727 = extractvalue { i8*, i32 } %726, 0
  store i8* %727, i8** %329, align 8
  %728 = extractvalue { i8*, i32 } %726, 1
  store i32 %728, i32* %330, align 4
  br label %1054
                                                  ; No predecessors!
  %730 = landingpad { i8*, i32 }
          cleanup
  %731 = extractvalue { i8*, i32 } %730, 0
  store i8* %731, i8** %329, align 8
  %732 = extractvalue { i8*, i32 } %730, 1
  store i32 %732, i32* %330, align 4
  br label %1052
                                                  ; No predecessors!
  %734 = landingpad { i8*, i32 }
          cleanup
  %735 = extractvalue { i8*, i32 } %734, 0
  store i8* %735, i8** %329, align 8
  %736 = extractvalue { i8*, i32 } %734, 1
  store i32 %736, i32* %330, align 4
  br label %1050

; <label>:737:                                    ; preds = %702
  %738 = landingpad { i8*, i32 }
          cleanup
  %739 = extractvalue { i8*, i32 } %738, 0
  store i8* %739, i8** %329, align 8
  %740 = extractvalue { i8*, i32 } %738, 1
  store i32 %740, i32* %330, align 4
  call void @__cxa_free_exception(i8* %703) #11
  br label %1048

; <label>:741:                                    ; preds = %990, %968, %929, %907, %884, %862, %829, %807, %788, %766, %1035, %1013, %994, %949, %888, %843, %749, %747, %745, %712
  %742 = landingpad { i8*, i32 }
          cleanup
  %743 = extractvalue { i8*, i32 } %742, 0
  store i8* %743, i8** %329, align 8
  %744 = extractvalue { i8*, i32 } %742, 1
  store i32 %744, i32* %330, align 4
  br label %1048

; <label>:745:                                    ; preds = %686
  %746 = invoke i64 @time(i64* null)
          to label %747 unwind label %741

; <label>:747:                                    ; preds = %745
  %748 = trunc i64 %746 to i32
  invoke void @srand(i32 %748)
          to label %749 unwind label %741

; <label>:749:                                    ; preds = %747
  %750 = load %"class.std::__1::vector.12"*, %"class.std::__1::vector.12"** %327, align 8
  invoke void @_ZN7Network17initializeNetworkERKNSt3__16vectorIiNS0_9allocatorIiEEEE(%class.Network* %338, %"class.std::__1::vector.12"* dereferenceable(24) %750)
          to label %751 unwind label %741

; <label>:751:                                    ; preds = %749
  %752 = getelementptr inbounds %class.Network, %class.Network* %338, i32 0, i32 8
  store %"class.boost::function"* null, %"class.boost::function"** %331, align 8
  store %"class.std::__1::vector.6"* %752, %"class.std::__1::vector.6"** %66, align 8
  store %"class.boost::function"** %331, %"class.boost::function"*** %67, align 8
  %753 = load %"class.std::__1::vector.6"*, %"class.std::__1::vector.6"** %66, align 8
  %754 = bitcast %"class.std::__1::vector.6"* %753 to %"class.std::__1::__vector_base.7"*
  %755 = getelementptr inbounds %"class.std::__1::__vector_base.7", %"class.std::__1::__vector_base.7"* %754, i32 0, i32 1
  %756 = load %"class.boost::function"**, %"class.boost::function"*** %755, align 8
  %757 = bitcast %"class.std::__1::vector.6"* %753 to %"class.std::__1::__vector_base.7"*
  store %"class.std::__1::__vector_base.7"* %757, %"class.std::__1::__vector_base.7"** %65, align 8
  %758 = load %"class.std::__1::__vector_base.7"*, %"class.std::__1::__vector_base.7"** %65, align 8
  %759 = getelementptr inbounds %"class.std::__1::__vector_base.7", %"class.std::__1::__vector_base.7"* %758, i32 0, i32 2
  store %"class.std::__1::__compressed_pair.8"* %759, %"class.std::__1::__compressed_pair.8"** %64, align 8
  %760 = load %"class.std::__1::__compressed_pair.8"*, %"class.std::__1::__compressed_pair.8"** %64, align 8
  %761 = bitcast %"class.std::__1::__compressed_pair.8"* %760 to %"class.std::__1::__libcpp_compressed_pair_imp.9"*
  store %"class.std::__1::__libcpp_compressed_pair_imp.9"* %761, %"class.std::__1::__libcpp_compressed_pair_imp.9"** %63, align 8
  %762 = load %"class.std::__1::__libcpp_compressed_pair_imp.9"*, %"class.std::__1::__libcpp_compressed_pair_imp.9"** %63, align 8
  %763 = getelementptr inbounds %"class.std::__1::__libcpp_compressed_pair_imp.9", %"class.std::__1::__libcpp_compressed_pair_imp.9"* %762, i32 0, i32 0
  %764 = load %"class.boost::function"**, %"class.boost::function"*** %763, align 8
  %765 = icmp ne %"class.boost::function"** %756, %764
  br i1 %765, label %766, label %788

; <label>:766:                                    ; preds = %751
  invoke void @_ZNSt3__16vectorIPN5boost8functionIFPNS1_7numeric5ublas6vectorIdNS4_15unbounded_arrayIdNS_9allocatorIdEEEEEERKSA_EEENS7_ISG_EEE24__RAII_IncreaseAnnotatorC1ERKSI_m(%"struct.std::__1::vector<boost::function<boost::numeric::ublas::vector<double, boost::numeric::ublas::unbounded_array<double, std::__1::allocator<double> > > *(const boost::numeric::ublas::vector<double, boost::numeric::ublas::unbounded_array<double, std::__1::allocator<double> > > &)> *, std::__1::allocator<boost::function<boost::numeric::ublas::vector<double, boost::numeric::ublas::unbounded_array<double, std::__1::allocator<double> > > *(const boost::numeric::ublas::vector<double, boost::numeric::ublas::unbounded_array<double, std::__1::allocator<double> > > &)> *> >::__RAII_IncreaseAnnotator"* %68, %"class.std::__1::vector.6"* dereferenceable(24) %753, i64 1)
          to label %767 unwind label %741

; <label>:767:                                    ; preds = %766
  %768 = bitcast %"class.std::__1::vector.6"* %753 to %"class.std::__1::__vector_base.7"*
  store %"class.std::__1::__vector_base.7"* %768, %"class.std::__1::__vector_base.7"** %62, align 8
  %769 = load %"class.std::__1::__vector_base.7"*, %"class.std::__1::__vector_base.7"** %62, align 8
  %770 = getelementptr inbounds %"class.std::__1::__vector_base.7", %"class.std::__1::__vector_base.7"* %769, i32 0, i32 2
  store %"class.std::__1::__compressed_pair.8"* %770, %"class.std::__1::__compressed_pair.8"** %61, align 8
  %771 = load %"class.std::__1::__compressed_pair.8"*, %"class.std::__1::__compressed_pair.8"** %61, align 8
  %772 = bitcast %"class.std::__1::__compressed_pair.8"* %771 to %"class.std::__1::__libcpp_compressed_pair_imp.9"*
  store %"class.std::__1::__libcpp_compressed_pair_imp.9"* %772, %"class.std::__1::__libcpp_compressed_pair_imp.9"** %60, align 8
  %773 = load %"class.std::__1::__libcpp_compressed_pair_imp.9"*, %"class.std::__1::__libcpp_compressed_pair_imp.9"** %60, align 8
  %774 = bitcast %"class.std::__1::__libcpp_compressed_pair_imp.9"* %773 to %"class.std::__1::allocator.10"*
  %775 = bitcast %"class.std::__1::vector.6"* %753 to %"class.std::__1::__vector_base.7"*
  %776 = getelementptr inbounds %"class.std::__1::__vector_base.7", %"class.std::__1::__vector_base.7"* %775, i32 0, i32 1
  %777 = load %"class.boost::function"**, %"class.boost::function"*** %776, align 8
  store %"class.boost::function"** %777, %"class.boost::function"*** %59, align 8
  %778 = load %"class.boost::function"**, %"class.boost::function"*** %59, align 8
  %779 = load %"class.boost::function"**, %"class.boost::function"*** %67, align 8
  store %"class.std::__1::allocator.10"* %774, %"class.std::__1::allocator.10"** %56, align 8
  store %"class.boost::function"** %778, %"class.boost::function"*** %57, align 8
  store %"class.boost::function"** %779, %"class.boost::function"*** %58, align 8
  %780 = load %"class.boost::function"**, %"class.boost::function"*** %57, align 8
  %781 = bitcast %"class.boost::function"** %780 to i8*
  %782 = load %"class.boost::function"**, %"class.boost::function"*** %58, align 8
  %783 = load %"class.boost::function"*, %"class.boost::function"** %782, align 8
  store %"class.boost::function"* %783, %"class.boost::function"** %780, align 8
  call void @_ZNSt3__16vectorIPN5boost8functionIFPNS1_7numeric5ublas6vectorIdNS4_15unbounded_arrayIdNS_9allocatorIdEEEEEERKSA_EEENS7_ISG_EEE24__RAII_IncreaseAnnotator6__doneEv(%"struct.std::__1::vector<boost::function<boost::numeric::ublas::vector<double, boost::numeric::ublas::unbounded_array<double, std::__1::allocator<double> > > *(const boost::numeric::ublas::vector<double, boost::numeric::ublas::unbounded_array<double, std::__1::allocator<double> > > &)> *, std::__1::allocator<boost::function<boost::numeric::ublas::vector<double, boost::numeric::ublas::unbounded_array<double, std::__1::allocator<double> > > *(const boost::numeric::ublas::vector<double, boost::numeric::ublas::unbounded_array<double, std::__1::allocator<double> > > &)> *> >::__RAII_IncreaseAnnotator"* %68)
  %784 = bitcast %"class.std::__1::vector.6"* %753 to %"class.std::__1::__vector_base.7"*
  %785 = getelementptr inbounds %"class.std::__1::__vector_base.7", %"class.std::__1::__vector_base.7"* %784, i32 0, i32 1
  %786 = load %"class.boost::function"**, %"class.boost::function"*** %785, align 8
  %787 = getelementptr inbounds %"class.boost::function"*, %"class.boost::function"** %786, i32 1
  store %"class.boost::function"** %787, %"class.boost::function"*** %785, align 8
  br label %791

; <label>:788:                                    ; preds = %751
  %789 = load %"class.boost::function"**, %"class.boost::function"*** %67, align 8
  invoke void @_ZNSt3__16vectorIPN5boost8functionIFPNS1_7numeric5ublas6vectorIdNS4_15unbounded_arrayIdNS_9allocatorIdEEEEEERKSA_EEENS7_ISG_EEE21__push_back_slow_pathIKSG_EEvRT_(%"class.std::__1::vector.6"* %753, %"class.boost::function"** dereferenceable(8) %789)
          to label %790 unwind label %741

; <label>:790:                                    ; preds = %788
  br label %791

; <label>:791:                                    ; preds = %767, %790
  br label %792

; <label>:792:                                    ; preds = %791
  %793 = getelementptr inbounds %class.Network, %class.Network* %338, i32 0, i32 9
  store %"class.boost::function"* null, %"class.boost::function"** %332, align 8
  store %"class.std::__1::vector.6"* %793, %"class.std::__1::vector.6"** %53, align 8
  store %"class.boost::function"** %332, %"class.boost::function"*** %54, align 8
  %794 = load %"class.std::__1::vector.6"*, %"class.std::__1::vector.6"** %53, align 8
  %795 = bitcast %"class.std::__1::vector.6"* %794 to %"class.std::__1::__vector_base.7"*
  %796 = getelementptr inbounds %"class.std::__1::__vector_base.7", %"class.std::__1::__vector_base.7"* %795, i32 0, i32 1
  %797 = load %"class.boost::function"**, %"class.boost::function"*** %796, align 8
  %798 = bitcast %"class.std::__1::vector.6"* %794 to %"class.std::__1::__vector_base.7"*
  store %"class.std::__1::__vector_base.7"* %798, %"class.std::__1::__vector_base.7"** %52, align 8
  %799 = load %"class.std::__1::__vector_base.7"*, %"class.std::__1::__vector_base.7"** %52, align 8
  %800 = getelementptr inbounds %"class.std::__1::__vector_base.7", %"class.std::__1::__vector_base.7"* %799, i32 0, i32 2
  store %"class.std::__1::__compressed_pair.8"* %800, %"class.std::__1::__compressed_pair.8"** %51, align 8
  %801 = load %"class.std::__1::__compressed_pair.8"*, %"class.std::__1::__compressed_pair.8"** %51, align 8
  %802 = bitcast %"class.std::__1::__compressed_pair.8"* %801 to %"class.std::__1::__libcpp_compressed_pair_imp.9"*
  store %"class.std::__1::__libcpp_compressed_pair_imp.9"* %802, %"class.std::__1::__libcpp_compressed_pair_imp.9"** %50, align 8
  %803 = load %"class.std::__1::__libcpp_compressed_pair_imp.9"*, %"class.std::__1::__libcpp_compressed_pair_imp.9"** %50, align 8
  %804 = getelementptr inbounds %"class.std::__1::__libcpp_compressed_pair_imp.9", %"class.std::__1::__libcpp_compressed_pair_imp.9"* %803, i32 0, i32 0
  %805 = load %"class.boost::function"**, %"class.boost::function"*** %804, align 8
  %806 = icmp ne %"class.boost::function"** %797, %805
  br i1 %806, label %807, label %829

; <label>:807:                                    ; preds = %792
  invoke void @_ZNSt3__16vectorIPN5boost8functionIFPNS1_7numeric5ublas6vectorIdNS4_15unbounded_arrayIdNS_9allocatorIdEEEEEERKSA_EEENS7_ISG_EEE24__RAII_IncreaseAnnotatorC1ERKSI_m(%"struct.std::__1::vector<boost::function<boost::numeric::ublas::vector<double, boost::numeric::ublas::unbounded_array<double, std::__1::allocator<double> > > *(const boost::numeric::ublas::vector<double, boost::numeric::ublas::unbounded_array<double, std::__1::allocator<double> > > &)> *, std::__1::allocator<boost::function<boost::numeric::ublas::vector<double, boost::numeric::ublas::unbounded_array<double, std::__1::allocator<double> > > *(const boost::numeric::ublas::vector<double, boost::numeric::ublas::unbounded_array<double, std::__1::allocator<double> > > &)> *> >::__RAII_IncreaseAnnotator"* %55, %"class.std::__1::vector.6"* dereferenceable(24) %794, i64 1)
          to label %808 unwind label %741

; <label>:808:                                    ; preds = %807
  %809 = bitcast %"class.std::__1::vector.6"* %794 to %"class.std::__1::__vector_base.7"*
  store %"class.std::__1::__vector_base.7"* %809, %"class.std::__1::__vector_base.7"** %49, align 8
  %810 = load %"class.std::__1::__vector_base.7"*, %"class.std::__1::__vector_base.7"** %49, align 8
  %811 = getelementptr inbounds %"class.std::__1::__vector_base.7", %"class.std::__1::__vector_base.7"* %810, i32 0, i32 2
  store %"class.std::__1::__compressed_pair.8"* %811, %"class.std::__1::__compressed_pair.8"** %48, align 8
  %812 = load %"class.std::__1::__compressed_pair.8"*, %"class.std::__1::__compressed_pair.8"** %48, align 8
  %813 = bitcast %"class.std::__1::__compressed_pair.8"* %812 to %"class.std::__1::__libcpp_compressed_pair_imp.9"*
  store %"class.std::__1::__libcpp_compressed_pair_imp.9"* %813, %"class.std::__1::__libcpp_compressed_pair_imp.9"** %47, align 8
  %814 = load %"class.std::__1::__libcpp_compressed_pair_imp.9"*, %"class.std::__1::__libcpp_compressed_pair_imp.9"** %47, align 8
  %815 = bitcast %"class.std::__1::__libcpp_compressed_pair_imp.9"* %814 to %"class.std::__1::allocator.10"*
  %816 = bitcast %"class.std::__1::vector.6"* %794 to %"class.std::__1::__vector_base.7"*
  %817 = getelementptr inbounds %"class.std::__1::__vector_base.7", %"class.std::__1::__vector_base.7"* %816, i32 0, i32 1
  %818 = load %"class.boost::function"**, %"class.boost::function"*** %817, align 8
  store %"class.boost::function"** %818, %"class.boost::function"*** %46, align 8
  %819 = load %"class.boost::function"**, %"class.boost::function"*** %46, align 8
  %820 = load %"class.boost::function"**, %"class.boost::function"*** %54, align 8
  store %"class.std::__1::allocator.10"* %815, %"class.std::__1::allocator.10"** %43, align 8
  store %"class.boost::function"** %819, %"class.boost::function"*** %44, align 8
  store %"class.boost::function"** %820, %"class.boost::function"*** %45, align 8
  %821 = load %"class.boost::function"**, %"class.boost::function"*** %44, align 8
  %822 = bitcast %"class.boost::function"** %821 to i8*
  %823 = load %"class.boost::function"**, %"class.boost::function"*** %45, align 8
  %824 = load %"class.boost::function"*, %"class.boost::function"** %823, align 8
  store %"class.boost::function"* %824, %"class.boost::function"** %821, align 8
  call void @_ZNSt3__16vectorIPN5boost8functionIFPNS1_7numeric5ublas6vectorIdNS4_15unbounded_arrayIdNS_9allocatorIdEEEEEERKSA_EEENS7_ISG_EEE24__RAII_IncreaseAnnotator6__doneEv(%"struct.std::__1::vector<boost::function<boost::numeric::ublas::vector<double, boost::numeric::ublas::unbounded_array<double, std::__1::allocator<double> > > *(const boost::numeric::ublas::vector<double, boost::numeric::ublas::unbounded_array<double, std::__1::allocator<double> > > &)> *, std::__1::allocator<boost::function<boost::numeric::ublas::vector<double, boost::numeric::ublas::unbounded_array<double, std::__1::allocator<double> > > *(const boost::numeric::ublas::vector<double, boost::numeric::ublas::unbounded_array<double, std::__1::allocator<double> > > &)> *> >::__RAII_IncreaseAnnotator"* %55)
  %825 = bitcast %"class.std::__1::vector.6"* %794 to %"class.std::__1::__vector_base.7"*
  %826 = getelementptr inbounds %"class.std::__1::__vector_base.7", %"class.std::__1::__vector_base.7"* %825, i32 0, i32 1
  %827 = load %"class.boost::function"**, %"class.boost::function"*** %826, align 8
  %828 = getelementptr inbounds %"class.boost::function"*, %"class.boost::function"** %827, i32 1
  store %"class.boost::function"** %828, %"class.boost::function"*** %826, align 8
  br label %832

; <label>:829:                                    ; preds = %792
  %830 = load %"class.boost::function"**, %"class.boost::function"*** %54, align 8
  invoke void @_ZNSt3__16vectorIPN5boost8functionIFPNS1_7numeric5ublas6vectorIdNS4_15unbounded_arrayIdNS_9allocatorIdEEEEEERKSA_EEENS7_ISG_EEE21__push_back_slow_pathIKSG_EEvRT_(%"class.std::__1::vector.6"* %794, %"class.boost::function"** dereferenceable(8) %830)
          to label %831 unwind label %741

; <label>:831:                                    ; preds = %829
  br label %832

; <label>:832:                                    ; preds = %808, %831
  br label %833

; <label>:833:                                    ; preds = %832
  store i32 0, i32* %333, align 4
  br label %834

; <label>:834:                                    ; preds = %934, %833
  %835 = load i32, i32* %333, align 4
  %836 = getelementptr inbounds %class.Network, %class.Network* %338, i32 0, i32 2
  %837 = load i32, i32* %836, align 8
  %838 = add i32 %837, 931934793
  %839 = sub i32 %838, 2
  %840 = sub i32 %839, 931934793
  %841 = sub nsw i32 %837, 2
  %842 = icmp slt i32 %835, %840
  br i1 %842, label %843, label %949

; <label>:843:                                    ; preds = %834
  %844 = getelementptr inbounds %class.Network, %class.Network* %338, i32 0, i32 8
  %845 = invoke i8* @_Znwm(i64 32) #13
          to label %846 unwind label %741

; <label>:846:                                    ; preds = %843
  %847 = bitcast i8* %845 to %"class.boost::function"*
  invoke void @_ZN5boost8functionIFPNS_7numeric5ublas6vectorIdNS2_15unbounded_arrayIdNSt3__19allocatorIdEEEEEERKS9_EEC1IPSD_EET_NS_11enable_if_cIXntsr11is_integralISH_EE5valueEiE4typeE(%"class.boost::function"* %847, %"class.boost::numeric::ublas::vector"* (%"class.boost::numeric::ublas::vector"*)* @_ZN7Network7sigmoidERKN5boost7numeric5ublas6vectorIdNS2_15unbounded_arrayIdNSt3__19allocatorIdEEEEEE, i32 0)
          to label %848 unwind label %941

; <label>:848:                                    ; preds = %846
  store %"class.boost::function"* %847, %"class.boost::function"** %334, align 8
  store %"class.std::__1::vector.6"* %844, %"class.std::__1::vector.6"** %40, align 8
  store %"class.boost::function"** %334, %"class.boost::function"*** %41, align 8
  %849 = load %"class.std::__1::vector.6"*, %"class.std::__1::vector.6"** %40, align 8
  %850 = bitcast %"class.std::__1::vector.6"* %849 to %"class.std::__1::__vector_base.7"*
  %851 = getelementptr inbounds %"class.std::__1::__vector_base.7", %"class.std::__1::__vector_base.7"* %850, i32 0, i32 1
  %852 = load %"class.boost::function"**, %"class.boost::function"*** %851, align 8
  %853 = bitcast %"class.std::__1::vector.6"* %849 to %"class.std::__1::__vector_base.7"*
  store %"class.std::__1::__vector_base.7"* %853, %"class.std::__1::__vector_base.7"** %39, align 8
  %854 = load %"class.std::__1::__vector_base.7"*, %"class.std::__1::__vector_base.7"** %39, align 8
  %855 = getelementptr inbounds %"class.std::__1::__vector_base.7", %"class.std::__1::__vector_base.7"* %854, i32 0, i32 2
  store %"class.std::__1::__compressed_pair.8"* %855, %"class.std::__1::__compressed_pair.8"** %38, align 8
  %856 = load %"class.std::__1::__compressed_pair.8"*, %"class.std::__1::__compressed_pair.8"** %38, align 8
  %857 = bitcast %"class.std::__1::__compressed_pair.8"* %856 to %"class.std::__1::__libcpp_compressed_pair_imp.9"*
  store %"class.std::__1::__libcpp_compressed_pair_imp.9"* %857, %"class.std::__1::__libcpp_compressed_pair_imp.9"** %37, align 8
  %858 = load %"class.std::__1::__libcpp_compressed_pair_imp.9"*, %"class.std::__1::__libcpp_compressed_pair_imp.9"** %37, align 8
  %859 = getelementptr inbounds %"class.std::__1::__libcpp_compressed_pair_imp.9", %"class.std::__1::__libcpp_compressed_pair_imp.9"* %858, i32 0, i32 0
  %860 = load %"class.boost::function"**, %"class.boost::function"*** %859, align 8
  %861 = icmp ne %"class.boost::function"** %852, %860
  br i1 %861, label %862, label %884

; <label>:862:                                    ; preds = %848
  invoke void @_ZNSt3__16vectorIPN5boost8functionIFPNS1_7numeric5ublas6vectorIdNS4_15unbounded_arrayIdNS_9allocatorIdEEEEEERKSA_EEENS7_ISG_EEE24__RAII_IncreaseAnnotatorC1ERKSI_m(%"struct.std::__1::vector<boost::function<boost::numeric::ublas::vector<double, boost::numeric::ublas::unbounded_array<double, std::__1::allocator<double> > > *(const boost::numeric::ublas::vector<double, boost::numeric::ublas::unbounded_array<double, std::__1::allocator<double> > > &)> *, std::__1::allocator<boost::function<boost::numeric::ublas::vector<double, boost::numeric::ublas::unbounded_array<double, std::__1::allocator<double> > > *(const boost::numeric::ublas::vector<double, boost::numeric::ublas::unbounded_array<double, std::__1::allocator<double> > > &)> *> >::__RAII_IncreaseAnnotator"* %42, %"class.std::__1::vector.6"* dereferenceable(24) %849, i64 1)
          to label %863 unwind label %741

; <label>:863:                                    ; preds = %862
  %864 = bitcast %"class.std::__1::vector.6"* %849 to %"class.std::__1::__vector_base.7"*
  store %"class.std::__1::__vector_base.7"* %864, %"class.std::__1::__vector_base.7"** %36, align 8
  %865 = load %"class.std::__1::__vector_base.7"*, %"class.std::__1::__vector_base.7"** %36, align 8
  %866 = getelementptr inbounds %"class.std::__1::__vector_base.7", %"class.std::__1::__vector_base.7"* %865, i32 0, i32 2
  store %"class.std::__1::__compressed_pair.8"* %866, %"class.std::__1::__compressed_pair.8"** %35, align 8
  %867 = load %"class.std::__1::__compressed_pair.8"*, %"class.std::__1::__compressed_pair.8"** %35, align 8
  %868 = bitcast %"class.std::__1::__compressed_pair.8"* %867 to %"class.std::__1::__libcpp_compressed_pair_imp.9"*
  store %"class.std::__1::__libcpp_compressed_pair_imp.9"* %868, %"class.std::__1::__libcpp_compressed_pair_imp.9"** %34, align 8
  %869 = load %"class.std::__1::__libcpp_compressed_pair_imp.9"*, %"class.std::__1::__libcpp_compressed_pair_imp.9"** %34, align 8
  %870 = bitcast %"class.std::__1::__libcpp_compressed_pair_imp.9"* %869 to %"class.std::__1::allocator.10"*
  %871 = bitcast %"class.std::__1::vector.6"* %849 to %"class.std::__1::__vector_base.7"*
  %872 = getelementptr inbounds %"class.std::__1::__vector_base.7", %"class.std::__1::__vector_base.7"* %871, i32 0, i32 1
  %873 = load %"class.boost::function"**, %"class.boost::function"*** %872, align 8
  store %"class.boost::function"** %873, %"class.boost::function"*** %33, align 8
  %874 = load %"class.boost::function"**, %"class.boost::function"*** %33, align 8
  %875 = load %"class.boost::function"**, %"class.boost::function"*** %41, align 8
  store %"class.std::__1::allocator.10"* %870, %"class.std::__1::allocator.10"** %30, align 8
  store %"class.boost::function"** %874, %"class.boost::function"*** %31, align 8
  store %"class.boost::function"** %875, %"class.boost::function"*** %32, align 8
  %876 = load %"class.boost::function"**, %"class.boost::function"*** %31, align 8
  %877 = bitcast %"class.boost::function"** %876 to i8*
  %878 = load %"class.boost::function"**, %"class.boost::function"*** %32, align 8
  %879 = load %"class.boost::function"*, %"class.boost::function"** %878, align 8
  store %"class.boost::function"* %879, %"class.boost::function"** %876, align 8
  call void @_ZNSt3__16vectorIPN5boost8functionIFPNS1_7numeric5ublas6vectorIdNS4_15unbounded_arrayIdNS_9allocatorIdEEEEEERKSA_EEENS7_ISG_EEE24__RAII_IncreaseAnnotator6__doneEv(%"struct.std::__1::vector<boost::function<boost::numeric::ublas::vector<double, boost::numeric::ublas::unbounded_array<double, std::__1::allocator<double> > > *(const boost::numeric::ublas::vector<double, boost::numeric::ublas::unbounded_array<double, std::__1::allocator<double> > > &)> *, std::__1::allocator<boost::function<boost::numeric::ublas::vector<double, boost::numeric::ublas::unbounded_array<double, std::__1::allocator<double> > > *(const boost::numeric::ublas::vector<double, boost::numeric::ublas::unbounded_array<double, std::__1::allocator<double> > > &)> *> >::__RAII_IncreaseAnnotator"* %42)
  %880 = bitcast %"class.std::__1::vector.6"* %849 to %"class.std::__1::__vector_base.7"*
  %881 = getelementptr inbounds %"class.std::__1::__vector_base.7", %"class.std::__1::__vector_base.7"* %880, i32 0, i32 1
  %882 = load %"class.boost::function"**, %"class.boost::function"*** %881, align 8
  %883 = getelementptr inbounds %"class.boost::function"*, %"class.boost::function"** %882, i32 1
  store %"class.boost::function"** %883, %"class.boost::function"*** %881, align 8
  br label %887

; <label>:884:                                    ; preds = %848
  %885 = load %"class.boost::function"**, %"class.boost::function"*** %41, align 8
  invoke void @_ZNSt3__16vectorIPN5boost8functionIFPNS1_7numeric5ublas6vectorIdNS4_15unbounded_arrayIdNS_9allocatorIdEEEEEERKSA_EEENS7_ISG_EEE21__push_back_slow_pathIKSG_EEvRT_(%"class.std::__1::vector.6"* %849, %"class.boost::function"** dereferenceable(8) %885)
          to label %886 unwind label %741

; <label>:886:                                    ; preds = %884
  br label %887

; <label>:887:                                    ; preds = %863, %886
  br label %888

; <label>:888:                                    ; preds = %887
  %889 = getelementptr inbounds %class.Network, %class.Network* %338, i32 0, i32 9
  %890 = invoke i8* @_Znwm(i64 32) #13
          to label %891 unwind label %741

; <label>:891:                                    ; preds = %888
  %892 = bitcast i8* %890 to %"class.boost::function"*
  invoke void @_ZN5boost8functionIFPNS_7numeric5ublas6vectorIdNS2_15unbounded_arrayIdNSt3__19allocatorIdEEEEEERKS9_EEC1IPSD_EET_NS_11enable_if_cIXntsr11is_integralISH_EE5valueEiE4typeE(%"class.boost::function"* %892, %"class.boost::numeric::ublas::vector"* (%"class.boost::numeric::ublas::vector"*)* @_ZN7Network12sigmoidPrimeERKN5boost7numeric5ublas6vectorIdNS2_15unbounded_arrayIdNSt3__19allocatorIdEEEEEE, i32 0)
          to label %893 unwind label %945

; <label>:893:                                    ; preds = %891
  store %"class.boost::function"* %892, %"class.boost::function"** %335, align 8
  store %"class.std::__1::vector.6"* %889, %"class.std::__1::vector.6"** %27, align 8
  store %"class.boost::function"** %335, %"class.boost::function"*** %28, align 8
  %894 = load %"class.std::__1::vector.6"*, %"class.std::__1::vector.6"** %27, align 8
  %895 = bitcast %"class.std::__1::vector.6"* %894 to %"class.std::__1::__vector_base.7"*
  %896 = getelementptr inbounds %"class.std::__1::__vector_base.7", %"class.std::__1::__vector_base.7"* %895, i32 0, i32 1
  %897 = load %"class.boost::function"**, %"class.boost::function"*** %896, align 8
  %898 = bitcast %"class.std::__1::vector.6"* %894 to %"class.std::__1::__vector_base.7"*
  store %"class.std::__1::__vector_base.7"* %898, %"class.std::__1::__vector_base.7"** %26, align 8
  %899 = load %"class.std::__1::__vector_base.7"*, %"class.std::__1::__vector_base.7"** %26, align 8
  %900 = getelementptr inbounds %"class.std::__1::__vector_base.7", %"class.std::__1::__vector_base.7"* %899, i32 0, i32 2
  store %"class.std::__1::__compressed_pair.8"* %900, %"class.std::__1::__compressed_pair.8"** %25, align 8
  %901 = load %"class.std::__1::__compressed_pair.8"*, %"class.std::__1::__compressed_pair.8"** %25, align 8
  %902 = bitcast %"class.std::__1::__compressed_pair.8"* %901 to %"class.std::__1::__libcpp_compressed_pair_imp.9"*
  store %"class.std::__1::__libcpp_compressed_pair_imp.9"* %902, %"class.std::__1::__libcpp_compressed_pair_imp.9"** %24, align 8
  %903 = load %"class.std::__1::__libcpp_compressed_pair_imp.9"*, %"class.std::__1::__libcpp_compressed_pair_imp.9"** %24, align 8
  %904 = getelementptr inbounds %"class.std::__1::__libcpp_compressed_pair_imp.9", %"class.std::__1::__libcpp_compressed_pair_imp.9"* %903, i32 0, i32 0
  %905 = load %"class.boost::function"**, %"class.boost::function"*** %904, align 8
  %906 = icmp ne %"class.boost::function"** %897, %905
  br i1 %906, label %907, label %929

; <label>:907:                                    ; preds = %893
  invoke void @_ZNSt3__16vectorIPN5boost8functionIFPNS1_7numeric5ublas6vectorIdNS4_15unbounded_arrayIdNS_9allocatorIdEEEEEERKSA_EEENS7_ISG_EEE24__RAII_IncreaseAnnotatorC1ERKSI_m(%"struct.std::__1::vector<boost::function<boost::numeric::ublas::vector<double, boost::numeric::ublas::unbounded_array<double, std::__1::allocator<double> > > *(const boost::numeric::ublas::vector<double, boost::numeric::ublas::unbounded_array<double, std::__1::allocator<double> > > &)> *, std::__1::allocator<boost::function<boost::numeric::ublas::vector<double, boost::numeric::ublas::unbounded_array<double, std::__1::allocator<double> > > *(const boost::numeric::ublas::vector<double, boost::numeric::ublas::unbounded_array<double, std::__1::allocator<double> > > &)> *> >::__RAII_IncreaseAnnotator"* %29, %"class.std::__1::vector.6"* dereferenceable(24) %894, i64 1)
          to label %908 unwind label %741

; <label>:908:                                    ; preds = %907
  %909 = bitcast %"class.std::__1::vector.6"* %894 to %"class.std::__1::__vector_base.7"*
  store %"class.std::__1::__vector_base.7"* %909, %"class.std::__1::__vector_base.7"** %23, align 8
  %910 = load %"class.std::__1::__vector_base.7"*, %"class.std::__1::__vector_base.7"** %23, align 8
  %911 = getelementptr inbounds %"class.std::__1::__vector_base.7", %"class.std::__1::__vector_base.7"* %910, i32 0, i32 2
  store %"class.std::__1::__compressed_pair.8"* %911, %"class.std::__1::__compressed_pair.8"** %22, align 8
  %912 = load %"class.std::__1::__compressed_pair.8"*, %"class.std::__1::__compressed_pair.8"** %22, align 8
  %913 = bitcast %"class.std::__1::__compressed_pair.8"* %912 to %"class.std::__1::__libcpp_compressed_pair_imp.9"*
  store %"class.std::__1::__libcpp_compressed_pair_imp.9"* %913, %"class.std::__1::__libcpp_compressed_pair_imp.9"** %21, align 8
  %914 = load %"class.std::__1::__libcpp_compressed_pair_imp.9"*, %"class.std::__1::__libcpp_compressed_pair_imp.9"** %21, align 8
  %915 = bitcast %"class.std::__1::__libcpp_compressed_pair_imp.9"* %914 to %"class.std::__1::allocator.10"*
  %916 = bitcast %"class.std::__1::vector.6"* %894 to %"class.std::__1::__vector_base.7"*
  %917 = getelementptr inbounds %"class.std::__1::__vector_base.7", %"class.std::__1::__vector_base.7"* %916, i32 0, i32 1
  %918 = load %"class.boost::function"**, %"class.boost::function"*** %917, align 8
  store %"class.boost::function"** %918, %"class.boost::function"*** %20, align 8
  %919 = load %"class.boost::function"**, %"class.boost::function"*** %20, align 8
  %920 = load %"class.boost::function"**, %"class.boost::function"*** %28, align 8
  store %"class.std::__1::allocator.10"* %915, %"class.std::__1::allocator.10"** %17, align 8
  store %"class.boost::function"** %919, %"class.boost::function"*** %18, align 8
  store %"class.boost::function"** %920, %"class.boost::function"*** %19, align 8
  %921 = load %"class.boost::function"**, %"class.boost::function"*** %18, align 8
  %922 = bitcast %"class.boost::function"** %921 to i8*
  %923 = load %"class.boost::function"**, %"class.boost::function"*** %19, align 8
  %924 = load %"class.boost::function"*, %"class.boost::function"** %923, align 8
  store %"class.boost::function"* %924, %"class.boost::function"** %921, align 8
  call void @_ZNSt3__16vectorIPN5boost8functionIFPNS1_7numeric5ublas6vectorIdNS4_15unbounded_arrayIdNS_9allocatorIdEEEEEERKSA_EEENS7_ISG_EEE24__RAII_IncreaseAnnotator6__doneEv(%"struct.std::__1::vector<boost::function<boost::numeric::ublas::vector<double, boost::numeric::ublas::unbounded_array<double, std::__1::allocator<double> > > *(const boost::numeric::ublas::vector<double, boost::numeric::ublas::unbounded_array<double, std::__1::allocator<double> > > &)> *, std::__1::allocator<boost::function<boost::numeric::ublas::vector<double, boost::numeric::ublas::unbounded_array<double, std::__1::allocator<double> > > *(const boost::numeric::ublas::vector<double, boost::numeric::ublas::unbounded_array<double, std::__1::allocator<double> > > &)> *> >::__RAII_IncreaseAnnotator"* %29)
  %925 = bitcast %"class.std::__1::vector.6"* %894 to %"class.std::__1::__vector_base.7"*
  %926 = getelementptr inbounds %"class.std::__1::__vector_base.7", %"class.std::__1::__vector_base.7"* %925, i32 0, i32 1
  %927 = load %"class.boost::function"**, %"class.boost::function"*** %926, align 8
  %928 = getelementptr inbounds %"class.boost::function"*, %"class.boost::function"** %927, i32 1
  store %"class.boost::function"** %928, %"class.boost::function"*** %926, align 8
  br label %932

; <label>:929:                                    ; preds = %893
  %930 = load %"class.boost::function"**, %"class.boost::function"*** %28, align 8
  invoke void @_ZNSt3__16vectorIPN5boost8functionIFPNS1_7numeric5ublas6vectorIdNS4_15unbounded_arrayIdNS_9allocatorIdEEEEEERKSA_EEENS7_ISG_EEE21__push_back_slow_pathIKSG_EEvRT_(%"class.std::__1::vector.6"* %894, %"class.boost::function"** dereferenceable(8) %930)
          to label %931 unwind label %741

; <label>:931:                                    ; preds = %929
  br label %932

; <label>:932:                                    ; preds = %908, %931
  br label %933

; <label>:933:                                    ; preds = %932
  br label %934

; <label>:934:                                    ; preds = %933
  %935 = load i32, i32* %333, align 4
  %936 = sub i32 0, %935
  %937 = sub i32 0, 1
  %938 = add i32 %936, %937
  %939 = sub i32 0, %938
  %940 = add nsw i32 %935, 1
  store i32 %939, i32* %333, align 4
  br label %834

; <label>:941:                                    ; preds = %846
  %942 = landingpad { i8*, i32 }
          cleanup
  %943 = extractvalue { i8*, i32 } %942, 0
  store i8* %943, i8** %329, align 8
  %944 = extractvalue { i8*, i32 } %942, 1
  store i32 %944, i32* %330, align 4
  call void @_ZdlPv(i8* %845) #14
  br label %1048

; <label>:945:                                    ; preds = %891
  %946 = landingpad { i8*, i32 }
          cleanup
  %947 = extractvalue { i8*, i32 } %946, 0
  store i8* %947, i8** %329, align 8
  %948 = extractvalue { i8*, i32 } %946, 1
  store i32 %948, i32* %330, align 4
  call void @_ZdlPv(i8* %890) #14
  br label %1048

; <label>:949:                                    ; preds = %834
  %950 = getelementptr inbounds %class.Network, %class.Network* %338, i32 0, i32 8
  %951 = invoke i8* @_Znwm(i64 32) #13
          to label %952 unwind label %741

; <label>:952:                                    ; preds = %949
  %953 = bitcast i8* %951 to %"class.boost::function"*
  invoke void @_ZN5boost8functionIFPNS_7numeric5ublas6vectorIdNS2_15unbounded_arrayIdNSt3__19allocatorIdEEEEEERKS9_EEC1IPSD_EET_NS_11enable_if_cIXntsr11is_integralISH_EE5valueEiE4typeE(%"class.boost::function"* %953, %"class.boost::numeric::ublas::vector"* (%"class.boost::numeric::ublas::vector"*)* @_ZN7Network8identityERKN5boost7numeric5ublas6vectorIdNS2_15unbounded_arrayIdNSt3__19allocatorIdEEEEEE, i32 0)
          to label %954 unwind label %1040

; <label>:954:                                    ; preds = %952
  store %"class.boost::function"* %953, %"class.boost::function"** %336, align 8
  store %"class.std::__1::vector.6"* %950, %"class.std::__1::vector.6"** %14, align 8
  store %"class.boost::function"** %336, %"class.boost::function"*** %15, align 8
  %955 = load %"class.std::__1::vector.6"*, %"class.std::__1::vector.6"** %14, align 8
  %956 = bitcast %"class.std::__1::vector.6"* %955 to %"class.std::__1::__vector_base.7"*
  %957 = getelementptr inbounds %"class.std::__1::__vector_base.7", %"class.std::__1::__vector_base.7"* %956, i32 0, i32 1
  %958 = load %"class.boost::function"**, %"class.boost::function"*** %957, align 8
  %959 = bitcast %"class.std::__1::vector.6"* %955 to %"class.std::__1::__vector_base.7"*
  store %"class.std::__1::__vector_base.7"* %959, %"class.std::__1::__vector_base.7"** %13, align 8
  %960 = load %"class.std::__1::__vector_base.7"*, %"class.std::__1::__vector_base.7"** %13, align 8
  %961 = getelementptr inbounds %"class.std::__1::__vector_base.7", %"class.std::__1::__vector_base.7"* %960, i32 0, i32 2
  store %"class.std::__1::__compressed_pair.8"* %961, %"class.std::__1::__compressed_pair.8"** %12, align 8
  %962 = load %"class.std::__1::__compressed_pair.8"*, %"class.std::__1::__compressed_pair.8"** %12, align 8
  %963 = bitcast %"class.std::__1::__compressed_pair.8"* %962 to %"class.std::__1::__libcpp_compressed_pair_imp.9"*
  store %"class.std::__1::__libcpp_compressed_pair_imp.9"* %963, %"class.std::__1::__libcpp_compressed_pair_imp.9"** %11, align 8
  %964 = load %"class.std::__1::__libcpp_compressed_pair_imp.9"*, %"class.std::__1::__libcpp_compressed_pair_imp.9"** %11, align 8
  %965 = getelementptr inbounds %"class.std::__1::__libcpp_compressed_pair_imp.9", %"class.std::__1::__libcpp_compressed_pair_imp.9"* %964, i32 0, i32 0
  %966 = load %"class.boost::function"**, %"class.boost::function"*** %965, align 8
  %967 = icmp ne %"class.boost::function"** %958, %966
  br i1 %967, label %968, label %990

; <label>:968:                                    ; preds = %954
  invoke void @_ZNSt3__16vectorIPN5boost8functionIFPNS1_7numeric5ublas6vectorIdNS4_15unbounded_arrayIdNS_9allocatorIdEEEEEERKSA_EEENS7_ISG_EEE24__RAII_IncreaseAnnotatorC1ERKSI_m(%"struct.std::__1::vector<boost::function<boost::numeric::ublas::vector<double, boost::numeric::ublas::unbounded_array<double, std::__1::allocator<double> > > *(const boost::numeric::ublas::vector<double, boost::numeric::ublas::unbounded_array<double, std::__1::allocator<double> > > &)> *, std::__1::allocator<boost::function<boost::numeric::ublas::vector<double, boost::numeric::ublas::unbounded_array<double, std::__1::allocator<double> > > *(const boost::numeric::ublas::vector<double, boost::numeric::ublas::unbounded_array<double, std::__1::allocator<double> > > &)> *> >::__RAII_IncreaseAnnotator"* %16, %"class.std::__1::vector.6"* dereferenceable(24) %955, i64 1)
          to label %969 unwind label %741

; <label>:969:                                    ; preds = %968
  %970 = bitcast %"class.std::__1::vector.6"* %955 to %"class.std::__1::__vector_base.7"*
  store %"class.std::__1::__vector_base.7"* %970, %"class.std::__1::__vector_base.7"** %10, align 8
  %971 = load %"class.std::__1::__vector_base.7"*, %"class.std::__1::__vector_base.7"** %10, align 8
  %972 = getelementptr inbounds %"class.std::__1::__vector_base.7", %"class.std::__1::__vector_base.7"* %971, i32 0, i32 2
  store %"class.std::__1::__compressed_pair.8"* %972, %"class.std::__1::__compressed_pair.8"** %9, align 8
  %973 = load %"class.std::__1::__compressed_pair.8"*, %"class.std::__1::__compressed_pair.8"** %9, align 8
  %974 = bitcast %"class.std::__1::__compressed_pair.8"* %973 to %"class.std::__1::__libcpp_compressed_pair_imp.9"*
  store %"class.std::__1::__libcpp_compressed_pair_imp.9"* %974, %"class.std::__1::__libcpp_compressed_pair_imp.9"** %8, align 8
  %975 = load %"class.std::__1::__libcpp_compressed_pair_imp.9"*, %"class.std::__1::__libcpp_compressed_pair_imp.9"** %8, align 8
  %976 = bitcast %"class.std::__1::__libcpp_compressed_pair_imp.9"* %975 to %"class.std::__1::allocator.10"*
  %977 = bitcast %"class.std::__1::vector.6"* %955 to %"class.std::__1::__vector_base.7"*
  %978 = getelementptr inbounds %"class.std::__1::__vector_base.7", %"class.std::__1::__vector_base.7"* %977, i32 0, i32 1
  %979 = load %"class.boost::function"**, %"class.boost::function"*** %978, align 8
  store %"class.boost::function"** %979, %"class.boost::function"*** %7, align 8
  %980 = load %"class.boost::function"**, %"class.boost::function"*** %7, align 8
  %981 = load %"class.boost::function"**, %"class.boost::function"*** %15, align 8
  store %"class.std::__1::allocator.10"* %976, %"class.std::__1::allocator.10"** %4, align 8
  store %"class.boost::function"** %980, %"class.boost::function"*** %5, align 8
  store %"class.boost::function"** %981, %"class.boost::function"*** %6, align 8
  %982 = load %"class.boost::function"**, %"class.boost::function"*** %5, align 8
  %983 = bitcast %"class.boost::function"** %982 to i8*
  %984 = load %"class.boost::function"**, %"class.boost::function"*** %6, align 8
  %985 = load %"class.boost::function"*, %"class.boost::function"** %984, align 8
  store %"class.boost::function"* %985, %"class.boost::function"** %982, align 8
  call void @_ZNSt3__16vectorIPN5boost8functionIFPNS1_7numeric5ublas6vectorIdNS4_15unbounded_arrayIdNS_9allocatorIdEEEEEERKSA_EEENS7_ISG_EEE24__RAII_IncreaseAnnotator6__doneEv(%"struct.std::__1::vector<boost::function<boost::numeric::ublas::vector<double, boost::numeric::ublas::unbounded_array<double, std::__1::allocator<double> > > *(const boost::numeric::ublas::vector<double, boost::numeric::ublas::unbounded_array<double, std::__1::allocator<double> > > &)> *, std::__1::allocator<boost::function<boost::numeric::ublas::vector<double, boost::numeric::ublas::unbounded_array<double, std::__1::allocator<double> > > *(const boost::numeric::ublas::vector<double, boost::numeric::ublas::unbounded_array<double, std::__1::allocator<double> > > &)> *> >::__RAII_IncreaseAnnotator"* %16)
  %986 = bitcast %"class.std::__1::vector.6"* %955 to %"class.std::__1::__vector_base.7"*
  %987 = getelementptr inbounds %"class.std::__1::__vector_base.7", %"class.std::__1::__vector_base.7"* %986, i32 0, i32 1
  %988 = load %"class.boost::function"**, %"class.boost::function"*** %987, align 8
  %989 = getelementptr inbounds %"class.boost::function"*, %"class.boost::function"** %988, i32 1
  store %"class.boost::function"** %989, %"class.boost::function"*** %987, align 8
  br label %993

; <label>:990:                                    ; preds = %954
  %991 = load %"class.boost::function"**, %"class.boost::function"*** %15, align 8
  invoke void @_ZNSt3__16vectorIPN5boost8functionIFPNS1_7numeric5ublas6vectorIdNS4_15unbounded_arrayIdNS_9allocatorIdEEEEEERKSA_EEENS7_ISG_EEE21__push_back_slow_pathIKSG_EEvRT_(%"class.std::__1::vector.6"* %955, %"class.boost::function"** dereferenceable(8) %991)
          to label %992 unwind label %741

; <label>:992:                                    ; preds = %990
  br label %993

; <label>:993:                                    ; preds = %969, %992
  br label %994

; <label>:994:                                    ; preds = %993
  %995 = getelementptr inbounds %class.Network, %class.Network* %338, i32 0, i32 9
  %996 = invoke i8* @_Znwm(i64 32) #13
          to label %997 unwind label %741

; <label>:997:                                    ; preds = %994
  %998 = bitcast i8* %996 to %"class.boost::function"*
  invoke void @_ZN5boost8functionIFPNS_7numeric5ublas6vectorIdNS2_15unbounded_arrayIdNSt3__19allocatorIdEEEEEERKS9_EEC1IPSD_EET_NS_11enable_if_cIXntsr11is_integralISH_EE5valueEiE4typeE(%"class.boost::function"* %998, %"class.boost::numeric::ublas::vector"* (%"class.boost::numeric::ublas::vector"*)* @_ZN7Network13identityPrimeERKN5boost7numeric5ublas6vectorIdNS2_15unbounded_arrayIdNSt3__19allocatorIdEEEEEE, i32 0)
          to label %999 unwind label %1044

; <label>:999:                                    ; preds = %997
  store %"class.boost::function"* %998, %"class.boost::function"** %337, align 8
  store %"class.std::__1::vector.6"* %995, %"class.std::__1::vector.6"** %83, align 8
  store %"class.boost::function"** %337, %"class.boost::function"*** %84, align 8
  %1000 = load %"class.std::__1::vector.6"*, %"class.std::__1::vector.6"** %83, align 8
  %1001 = bitcast %"class.std::__1::vector.6"* %1000 to %"class.std::__1::__vector_base.7"*
  %1002 = getelementptr inbounds %"class.std::__1::__vector_base.7", %"class.std::__1::__vector_base.7"* %1001, i32 0, i32 1
  %1003 = load %"class.boost::function"**, %"class.boost::function"*** %1002, align 8
  %1004 = bitcast %"class.std::__1::vector.6"* %1000 to %"class.std::__1::__vector_base.7"*
  store %"class.std::__1::__vector_base.7"* %1004, %"class.std::__1::__vector_base.7"** %82, align 8
  %1005 = load %"class.std::__1::__vector_base.7"*, %"class.std::__1::__vector_base.7"** %82, align 8
  %1006 = getelementptr inbounds %"class.std::__1::__vector_base.7", %"class.std::__1::__vector_base.7"* %1005, i32 0, i32 2
  store %"class.std::__1::__compressed_pair.8"* %1006, %"class.std::__1::__compressed_pair.8"** %81, align 8
  %1007 = load %"class.std::__1::__compressed_pair.8"*, %"class.std::__1::__compressed_pair.8"** %81, align 8
  %1008 = bitcast %"class.std::__1::__compressed_pair.8"* %1007 to %"class.std::__1::__libcpp_compressed_pair_imp.9"*
  store %"class.std::__1::__libcpp_compressed_pair_imp.9"* %1008, %"class.std::__1::__libcpp_compressed_pair_imp.9"** %80, align 8
  %1009 = load %"class.std::__1::__libcpp_compressed_pair_imp.9"*, %"class.std::__1::__libcpp_compressed_pair_imp.9"** %80, align 8
  %1010 = getelementptr inbounds %"class.std::__1::__libcpp_compressed_pair_imp.9", %"class.std::__1::__libcpp_compressed_pair_imp.9"* %1009, i32 0, i32 0
  %1011 = load %"class.boost::function"**, %"class.boost::function"*** %1010, align 8
  %1012 = icmp ne %"class.boost::function"** %1003, %1011
  br i1 %1012, label %1013, label %1035

; <label>:1013:                                   ; preds = %999
  invoke void @_ZNSt3__16vectorIPN5boost8functionIFPNS1_7numeric5ublas6vectorIdNS4_15unbounded_arrayIdNS_9allocatorIdEEEEEERKSA_EEENS7_ISG_EEE24__RAII_IncreaseAnnotatorC1ERKSI_m(%"struct.std::__1::vector<boost::function<boost::numeric::ublas::vector<double, boost::numeric::ublas::unbounded_array<double, std::__1::allocator<double> > > *(const boost::numeric::ublas::vector<double, boost::numeric::ublas::unbounded_array<double, std::__1::allocator<double> > > &)> *, std::__1::allocator<boost::function<boost::numeric::ublas::vector<double, boost::numeric::ublas::unbounded_array<double, std::__1::allocator<double> > > *(const boost::numeric::ublas::vector<double, boost::numeric::ublas::unbounded_array<double, std::__1::allocator<double> > > &)> *> >::__RAII_IncreaseAnnotator"* %85, %"class.std::__1::vector.6"* dereferenceable(24) %1000, i64 1)
          to label %1014 unwind label %741

; <label>:1014:                                   ; preds = %1013
  %1015 = bitcast %"class.std::__1::vector.6"* %1000 to %"class.std::__1::__vector_base.7"*
  store %"class.std::__1::__vector_base.7"* %1015, %"class.std::__1::__vector_base.7"** %79, align 8
  %1016 = load %"class.std::__1::__vector_base.7"*, %"class.std::__1::__vector_base.7"** %79, align 8
  %1017 = getelementptr inbounds %"class.std::__1::__vector_base.7", %"class.std::__1::__vector_base.7"* %1016, i32 0, i32 2
  store %"class.std::__1::__compressed_pair.8"* %1017, %"class.std::__1::__compressed_pair.8"** %78, align 8
  %1018 = load %"class.std::__1::__compressed_pair.8"*, %"class.std::__1::__compressed_pair.8"** %78, align 8
  %1019 = bitcast %"class.std::__1::__compressed_pair.8"* %1018 to %"class.std::__1::__libcpp_compressed_pair_imp.9"*
  store %"class.std::__1::__libcpp_compressed_pair_imp.9"* %1019, %"class.std::__1::__libcpp_compressed_pair_imp.9"** %77, align 8
  %1020 = load %"class.std::__1::__libcpp_compressed_pair_imp.9"*, %"class.std::__1::__libcpp_compressed_pair_imp.9"** %77, align 8
  %1021 = bitcast %"class.std::__1::__libcpp_compressed_pair_imp.9"* %1020 to %"class.std::__1::allocator.10"*
  %1022 = bitcast %"class.std::__1::vector.6"* %1000 to %"class.std::__1::__vector_base.7"*
  %1023 = getelementptr inbounds %"class.std::__1::__vector_base.7", %"class.std::__1::__vector_base.7"* %1022, i32 0, i32 1
  %1024 = load %"class.boost::function"**, %"class.boost::function"*** %1023, align 8
  store %"class.boost::function"** %1024, %"class.boost::function"*** %76, align 8
  %1025 = load %"class.boost::function"**, %"class.boost::function"*** %76, align 8
  %1026 = load %"class.boost::function"**, %"class.boost::function"*** %84, align 8
  store %"class.std::__1::allocator.10"* %1021, %"class.std::__1::allocator.10"** %73, align 8
  store %"class.boost::function"** %1025, %"class.boost::function"*** %74, align 8
  store %"class.boost::function"** %1026, %"class.boost::function"*** %75, align 8
  %1027 = load %"class.boost::function"**, %"class.boost::function"*** %74, align 8
  %1028 = bitcast %"class.boost::function"** %1027 to i8*
  %1029 = load %"class.boost::function"**, %"class.boost::function"*** %75, align 8
  %1030 = load %"class.boost::function"*, %"class.boost::function"** %1029, align 8
  store %"class.boost::function"* %1030, %"class.boost::function"** %1027, align 8
  call void @_ZNSt3__16vectorIPN5boost8functionIFPNS1_7numeric5ublas6vectorIdNS4_15unbounded_arrayIdNS_9allocatorIdEEEEEERKSA_EEENS7_ISG_EEE24__RAII_IncreaseAnnotator6__doneEv(%"struct.std::__1::vector<boost::function<boost::numeric::ublas::vector<double, boost::numeric::ublas::unbounded_array<double, std::__1::allocator<double> > > *(const boost::numeric::ublas::vector<double, boost::numeric::ublas::unbounded_array<double, std::__1::allocator<double> > > &)> *, std::__1::allocator<boost::function<boost::numeric::ublas::vector<double, boost::numeric::ublas::unbounded_array<double, std::__1::allocator<double> > > *(const boost::numeric::ublas::vector<double, boost::numeric::ublas::unbounded_array<double, std::__1::allocator<double> > > &)> *> >::__RAII_IncreaseAnnotator"* %85)
  %1031 = bitcast %"class.std::__1::vector.6"* %1000 to %"class.std::__1::__vector_base.7"*
  %1032 = getelementptr inbounds %"class.std::__1::__vector_base.7", %"class.std::__1::__vector_base.7"* %1031, i32 0, i32 1
  %1033 = load %"class.boost::function"**, %"class.boost::function"*** %1032, align 8
  %1034 = getelementptr inbounds %"class.boost::function"*, %"class.boost::function"** %1033, i32 1
  store %"class.boost::function"** %1034, %"class.boost::function"*** %1032, align 8
  br label %1038

; <label>:1035:                                   ; preds = %999
  %1036 = load %"class.boost::function"**, %"class.boost::function"*** %84, align 8
  invoke void @_ZNSt3__16vectorIPN5boost8functionIFPNS1_7numeric5ublas6vectorIdNS4_15unbounded_arrayIdNS_9allocatorIdEEEEEERKSA_EEENS7_ISG_EEE21__push_back_slow_pathIKSG_EEvRT_(%"class.std::__1::vector.6"* %1000, %"class.boost::function"** dereferenceable(8) %1036)
          to label %1037 unwind label %741

; <label>:1037:                                   ; preds = %1035
  br label %1038

; <label>:1038:                                   ; preds = %1014, %1037
  br label %1039

; <label>:1039:                                   ; preds = %1038
  ret void

; <label>:1040:                                   ; preds = %952
  %1041 = landingpad { i8*, i32 }
          cleanup
  %1042 = extractvalue { i8*, i32 } %1041, 0
  store i8* %1042, i8** %329, align 8
  %1043 = extractvalue { i8*, i32 } %1041, 1
  store i32 %1043, i32* %330, align 4
  call void @_ZdlPv(i8* %951) #14
  br label %1048

; <label>:1044:                                   ; preds = %997
  %1045 = landingpad { i8*, i32 }
          cleanup
  %1046 = extractvalue { i8*, i32 } %1045, 0
  store i8* %1046, i8** %329, align 8
  %1047 = extractvalue { i8*, i32 } %1045, 1
  store i32 %1047, i32* %330, align 4
  call void @_ZdlPv(i8* %996) #14
  br label %1048

; <label>:1048:                                   ; preds = %1044, %1040, %945, %941, %741, %737
  invoke void @_ZNSt3__16vectorIPN5boost8functionIFPNS1_7numeric5ublas6vectorIdNS4_15unbounded_arrayIdNS_9allocatorIdEEEEEERKSA_EEENS7_ISG_EEED1Ev(%"class.std::__1::vector.6"* %640)
          to label %1049 unwind label %1067

; <label>:1049:                                   ; preds = %1048
  br label %1050

; <label>:1050:                                   ; preds = %1049, %733
  invoke void @_ZNSt3__16vectorIPN5boost8functionIFPNS1_7numeric5ublas6vectorIdNS4_15unbounded_arrayIdNS_9allocatorIdEEEEEERKSA_EEENS7_ISG_EEED1Ev(%"class.std::__1::vector.6"* %593)
          to label %1051 unwind label %1067

; <label>:1051:                                   ; preds = %1050
  br label %1052

; <label>:1052:                                   ; preds = %1051, %729
  invoke void @_ZNSt3__16vectorIPN5boost7numeric5ublas6vectorIdNS3_15unbounded_arrayIdNS_9allocatorIdEEEEEENS6_ISA_EEED1Ev(%"class.std::__1::vector"* %546)
          to label %1053 unwind label %1067

; <label>:1053:                                   ; preds = %1052
  br label %1054

; <label>:1054:                                   ; preds = %1053, %725
  invoke void @_ZNSt3__16vectorIPN5boost7numeric5ublas6matrixIdNS3_15basic_row_majorImlEENS3_15unbounded_arrayIdNS_9allocatorIdEEEEEENS8_ISC_EEED1Ev(%"class.std::__1::vector.0"* %499)
          to label %1055 unwind label %1067

; <label>:1055:                                   ; preds = %1054
  br label %1056

; <label>:1056:                                   ; preds = %1055, %721
  invoke void @_ZNSt3__16vectorIPN5boost7numeric5ublas6vectorIdNS3_15unbounded_arrayIdNS_9allocatorIdEEEEEENS6_ISA_EEED1Ev(%"class.std::__1::vector"* %452)
          to label %1057 unwind label %1067

; <label>:1057:                                   ; preds = %1056
  br label %1058

; <label>:1058:                                   ; preds = %1057, %717
  invoke void @_ZNSt3__16vectorIPN5boost7numeric5ublas6vectorIdNS3_15unbounded_arrayIdNS_9allocatorIdEEEEEENS6_ISA_EEED1Ev(%"class.std::__1::vector"* %405)
          to label %1059 unwind label %1067

; <label>:1059:                                   ; preds = %1058
  br label %1060

; <label>:1060:                                   ; preds = %1059, %713
  invoke void @_ZNSt3__16vectorIPN5boost7numeric5ublas6vectorIdNS3_15unbounded_arrayIdNS_9allocatorIdEEEEEENS6_ISA_EEED1Ev(%"class.std::__1::vector"* %359)
          to label %1061 unwind label %1067

; <label>:1061:                                   ; preds = %1060
  br label %1062

; <label>:1062:                                   ; preds = %1061
  %1063 = load i8*, i8** %329, align 8
  %1064 = load i32, i32* %330, align 4
  %1065 = insertvalue { i8*, i32 } undef, i8* %1063, 0
  %1066 = insertvalue { i8*, i32 } %1065, i32 %1064, 1
  resume { i8*, i32 } %1066

; <label>:1067:                                   ; preds = %1060, %1058, %1056, %1054, %1052, %1050, %1048
  %1068 = landingpad { i8*, i32 }
          catch i8* null
  %1069 = extractvalue { i8*, i32 } %1068, 0
  call void @__clang_call_terminate(i8* %1069) #15
  unreachable

; <label>:1070:                                   ; preds = %712
  unreachable
}

declare i32 @__gxx_personality_v0(...)

declare i8* @__cxa_allocate_exception(i64)

declare void @__cxa_free_exception(i8*)

; Function Attrs: nounwind
declare void @_ZNSt16invalid_argumentD1Ev(%"class.std::invalid_argument"*) unnamed_addr #1

declare void @__cxa_throw(i8*, i8*, i8*)

declare void @srand(i32) #2

declare i64 @time(i64*) #2

; Function Attrs: noinline ssp uwtable
define void @_ZN7Network17initializeNetworkERKNSt3__16vectorIiNS0_9allocatorIiEEEE(%class.Network*, %"class.std::__1::vector.12"* dereferenceable(24)) #0 align 2 personality i8* bitcast (i32 (...)* @__gxx_personality_v0 to i8*) {
  %3 = alloca %"class.std::__1::allocator"*, align 8
  %4 = alloca %"class.boost::numeric::ublas::vector"**, align 8
  %5 = alloca %"class.boost::numeric::ublas::vector"**, align 8
  %6 = alloca %"class.boost::numeric::ublas::vector"**, align 8
  %7 = alloca %"class.std::__1::__libcpp_compressed_pair_imp"*, align 8
  %8 = alloca %"class.std::__1::__compressed_pair"*, align 8
  %9 = alloca %"class.std::__1::__vector_base"*, align 8
  %10 = alloca %"class.std::__1::__libcpp_compressed_pair_imp"*, align 8
  %11 = alloca %"class.std::__1::__compressed_pair"*, align 8
  %12 = alloca %"class.std::__1::__vector_base"*, align 8
  %13 = alloca %"class.std::__1::vector"*, align 8
  %14 = alloca %"class.boost::numeric::ublas::vector"**, align 8
  %15 = alloca %"struct.std::__1::vector<boost::numeric::ublas::vector<double, boost::numeric::ublas::unbounded_array<double, std::__1::allocator<double> > > *, std::__1::allocator<boost::numeric::ublas::vector<double, boost::numeric::ublas::unbounded_array<double, std::__1::allocator<double> > > *> >::__RAII_IncreaseAnnotator", align 1
  %16 = alloca %"class.std::__1::allocator"*, align 8
  %17 = alloca %"class.boost::numeric::ublas::vector"**, align 8
  %18 = alloca %"class.boost::numeric::ublas::vector"**, align 8
  %19 = alloca %"class.boost::numeric::ublas::vector"**, align 8
  %20 = alloca %"class.std::__1::__libcpp_compressed_pair_imp"*, align 8
  %21 = alloca %"class.std::__1::__compressed_pair"*, align 8
  %22 = alloca %"class.std::__1::__vector_base"*, align 8
  %23 = alloca %"class.std::__1::__libcpp_compressed_pair_imp"*, align 8
  %24 = alloca %"class.std::__1::__compressed_pair"*, align 8
  %25 = alloca %"class.std::__1::__vector_base"*, align 8
  %26 = alloca %"class.std::__1::vector"*, align 8
  %27 = alloca %"class.boost::numeric::ublas::vector"**, align 8
  %28 = alloca %"struct.std::__1::vector<boost::numeric::ublas::vector<double, boost::numeric::ublas::unbounded_array<double, std::__1::allocator<double> > > *, std::__1::allocator<boost::numeric::ublas::vector<double, boost::numeric::ublas::unbounded_array<double, std::__1::allocator<double> > > *> >::__RAII_IncreaseAnnotator", align 1
  %29 = alloca %"class.std::__1::allocator"*, align 8
  %30 = alloca %"class.boost::numeric::ublas::vector"**, align 8
  %31 = alloca %"class.boost::numeric::ublas::vector"**, align 8
  %32 = alloca %"class.boost::numeric::ublas::vector"**, align 8
  %33 = alloca %"class.std::__1::__libcpp_compressed_pair_imp"*, align 8
  %34 = alloca %"class.std::__1::__compressed_pair"*, align 8
  %35 = alloca %"class.std::__1::__vector_base"*, align 8
  %36 = alloca %"class.std::__1::__libcpp_compressed_pair_imp"*, align 8
  %37 = alloca %"class.std::__1::__compressed_pair"*, align 8
  %38 = alloca %"class.std::__1::__vector_base"*, align 8
  %39 = alloca %"class.std::__1::vector"*, align 8
  %40 = alloca %"class.boost::numeric::ublas::vector"**, align 8
  %41 = alloca %"struct.std::__1::vector<boost::numeric::ublas::vector<double, boost::numeric::ublas::unbounded_array<double, std::__1::allocator<double> > > *, std::__1::allocator<boost::numeric::ublas::vector<double, boost::numeric::ublas::unbounded_array<double, std::__1::allocator<double> > > *> >::__RAII_IncreaseAnnotator", align 1
  %42 = alloca i64, align 8
  %43 = alloca double*, align 8
  %44 = alloca i64, align 8
  %45 = alloca i64, align 8
  %46 = alloca double*, align 8
  %47 = alloca %"class.boost::numeric::ublas::vector<double, boost::numeric::ublas::unbounded_array<double, std::__1::allocator<double> > >::iterator", align 8
  %48 = alloca i8*
  %49 = alloca i32
  %50 = alloca %"struct.std::__1::random_access_iterator_tag", align 1
  %51 = alloca double*, align 8
  %52 = alloca %"class.boost::numeric::ublas::vector<double, boost::numeric::ublas::unbounded_array<double, std::__1::allocator<double> > >::iterator", align 8
  %53 = alloca %"class.boost::numeric::ublas::vector<double, boost::numeric::ublas::unbounded_array<double, std::__1::allocator<double> > >::iterator", align 8
  %54 = alloca i8*
  %55 = alloca i32
  %56 = alloca double*, align 8
  %57 = alloca %"class.boost::numeric::ublas::vector<double, boost::numeric::ublas::unbounded_array<double, std::__1::allocator<double> > >::iterator", align 8
  %58 = alloca %"class.boost::numeric::ublas::vector<double, boost::numeric::ublas::unbounded_array<double, std::__1::allocator<double> > >::iterator", align 8
  %59 = alloca %"struct.std::__1::random_access_iterator_tag", align 1
  %60 = alloca %"struct.boost::numeric::ublas::dense_random_access_iterator_tag", align 1
  %61 = alloca i8*
  %62 = alloca i32
  %63 = alloca i64, align 8
  %64 = alloca double*, align 8
  %65 = alloca i64, align 8
  %66 = alloca i64, align 8
  %67 = alloca double*, align 8
  %68 = alloca %"class.boost::numeric::ublas::vector<double, boost::numeric::ublas::unbounded_array<double, std::__1::allocator<double> > >::iterator", align 8
  %69 = alloca i8*
  %70 = alloca i32
  %71 = alloca %"struct.std::__1::random_access_iterator_tag", align 1
  %72 = alloca double*, align 8
  %73 = alloca %"class.boost::numeric::ublas::vector<double, boost::numeric::ublas::unbounded_array<double, std::__1::allocator<double> > >::iterator", align 8
  %74 = alloca %"class.boost::numeric::ublas::vector<double, boost::numeric::ublas::unbounded_array<double, std::__1::allocator<double> > >::iterator", align 8
  %75 = alloca i8*
  %76 = alloca i32
  %77 = alloca double*, align 8
  %78 = alloca %"class.boost::numeric::ublas::vector<double, boost::numeric::ublas::unbounded_array<double, std::__1::allocator<double> > >::iterator", align 8
  %79 = alloca %"class.boost::numeric::ublas::vector<double, boost::numeric::ublas::unbounded_array<double, std::__1::allocator<double> > >::iterator", align 8
  %80 = alloca %"struct.std::__1::random_access_iterator_tag", align 1
  %81 = alloca %"struct.boost::numeric::ublas::dense_random_access_iterator_tag", align 1
  %82 = alloca i8*
  %83 = alloca i32
  %84 = alloca i64, align 8
  %85 = alloca double*, align 8
  %86 = alloca i64, align 8
  %87 = alloca i64, align 8
  %88 = alloca double*, align 8
  %89 = alloca %"class.boost::numeric::ublas::vector<double, boost::numeric::ublas::unbounded_array<double, std::__1::allocator<double> > >::iterator", align 8
  %90 = alloca i8*
  %91 = alloca i32
  %92 = alloca %"struct.std::__1::random_access_iterator_tag", align 1
  %93 = alloca double*, align 8
  %94 = alloca %"class.boost::numeric::ublas::vector<double, boost::numeric::ublas::unbounded_array<double, std::__1::allocator<double> > >::iterator", align 8
  %95 = alloca %"class.boost::numeric::ublas::vector<double, boost::numeric::ublas::unbounded_array<double, std::__1::allocator<double> > >::iterator", align 8
  %96 = alloca i8*
  %97 = alloca i32
  %98 = alloca double*, align 8
  %99 = alloca %"class.boost::numeric::ublas::vector<double, boost::numeric::ublas::unbounded_array<double, std::__1::allocator<double> > >::iterator", align 8
  %100 = alloca %"class.boost::numeric::ublas::vector<double, boost::numeric::ublas::unbounded_array<double, std::__1::allocator<double> > >::iterator", align 8
  %101 = alloca %"struct.std::__1::random_access_iterator_tag", align 1
  %102 = alloca %"struct.boost::numeric::ublas::dense_random_access_iterator_tag", align 1
  %103 = alloca i8*
  %104 = alloca i32
  %105 = alloca %"class.std::__1::vector.12"*, align 8
  %106 = alloca i64, align 8
  %107 = alloca %"class.std::__1::vector.12"*, align 8
  %108 = alloca %"class.std::__1::allocator"*, align 8
  %109 = alloca %"class.boost::numeric::ublas::vector"**, align 8
  %110 = alloca %"class.boost::numeric::ublas::vector"**, align 8
  %111 = alloca %"class.boost::numeric::ublas::vector"**, align 8
  %112 = alloca %"class.std::__1::__libcpp_compressed_pair_imp"*, align 8
  %113 = alloca %"class.std::__1::__compressed_pair"*, align 8
  %114 = alloca %"class.std::__1::__vector_base"*, align 8
  %115 = alloca %"class.std::__1::__libcpp_compressed_pair_imp"*, align 8
  %116 = alloca %"class.std::__1::__compressed_pair"*, align 8
  %117 = alloca %"class.std::__1::__vector_base"*, align 8
  %118 = alloca %"class.std::__1::vector"*, align 8
  %119 = alloca %"class.boost::numeric::ublas::vector"**, align 8
  %120 = alloca %"struct.std::__1::vector<boost::numeric::ublas::vector<double, boost::numeric::ublas::unbounded_array<double, std::__1::allocator<double> > > *, std::__1::allocator<boost::numeric::ublas::vector<double, boost::numeric::ublas::unbounded_array<double, std::__1::allocator<double> > > *> >::__RAII_IncreaseAnnotator", align 1
  %121 = alloca %"class.std::__1::allocator"*, align 8
  %122 = alloca %"class.boost::numeric::ublas::vector"**, align 8
  %123 = alloca %"class.boost::numeric::ublas::vector"**, align 8
  %124 = alloca %"class.boost::numeric::ublas::vector"**, align 8
  %125 = alloca %"class.std::__1::__libcpp_compressed_pair_imp"*, align 8
  %126 = alloca %"class.std::__1::__compressed_pair"*, align 8
  %127 = alloca %"class.std::__1::__vector_base"*, align 8
  %128 = alloca %"class.std::__1::__libcpp_compressed_pair_imp"*, align 8
  %129 = alloca %"class.std::__1::__compressed_pair"*, align 8
  %130 = alloca %"class.std::__1::__vector_base"*, align 8
  %131 = alloca %"class.std::__1::vector"*, align 8
  %132 = alloca %"class.boost::numeric::ublas::vector"**, align 8
  %133 = alloca %"struct.std::__1::vector<boost::numeric::ublas::vector<double, boost::numeric::ublas::unbounded_array<double, std::__1::allocator<double> > > *, std::__1::allocator<boost::numeric::ublas::vector<double, boost::numeric::ublas::unbounded_array<double, std::__1::allocator<double> > > *> >::__RAII_IncreaseAnnotator", align 1
  %134 = alloca %"class.std::__1::allocator"*, align 8
  %135 = alloca %"class.boost::numeric::ublas::vector"**, align 8
  %136 = alloca %"class.boost::numeric::ublas::vector"**, align 8
  %137 = alloca %"class.boost::numeric::ublas::vector"**, align 8
  %138 = alloca %"class.std::__1::__libcpp_compressed_pair_imp"*, align 8
  %139 = alloca %"class.std::__1::__compressed_pair"*, align 8
  %140 = alloca %"class.std::__1::__vector_base"*, align 8
  %141 = alloca %"class.std::__1::__libcpp_compressed_pair_imp"*, align 8
  %142 = alloca %"class.std::__1::__compressed_pair"*, align 8
  %143 = alloca %"class.std::__1::__vector_base"*, align 8
  %144 = alloca %"class.std::__1::vector"*, align 8
  %145 = alloca %"class.boost::numeric::ublas::vector"**, align 8
  %146 = alloca %"struct.std::__1::vector<boost::numeric::ublas::vector<double, boost::numeric::ublas::unbounded_array<double, std::__1::allocator<double> > > *, std::__1::allocator<boost::numeric::ublas::vector<double, boost::numeric::ublas::unbounded_array<double, std::__1::allocator<double> > > *> >::__RAII_IncreaseAnnotator", align 1
  %147 = alloca %"class.std::__1::allocator"*, align 8
  %148 = alloca %"class.boost::numeric::ublas::vector"**, align 8
  %149 = alloca %"class.boost::numeric::ublas::vector"**, align 8
  %150 = alloca %"class.boost::numeric::ublas::vector"**, align 8
  %151 = alloca %"class.std::__1::__libcpp_compressed_pair_imp"*, align 8
  %152 = alloca %"class.std::__1::__compressed_pair"*, align 8
  %153 = alloca %"class.std::__1::__vector_base"*, align 8
  %154 = alloca %"class.std::__1::__libcpp_compressed_pair_imp"*, align 8
  %155 = alloca %"class.std::__1::__compressed_pair"*, align 8
  %156 = alloca %"class.std::__1::__vector_base"*, align 8
  %157 = alloca %"class.std::__1::vector"*, align 8
  %158 = alloca %"class.boost::numeric::ublas::vector"**, align 8
  %159 = alloca %"struct.std::__1::vector<boost::numeric::ublas::vector<double, boost::numeric::ublas::unbounded_array<double, std::__1::allocator<double> > > *, std::__1::allocator<boost::numeric::ublas::vector<double, boost::numeric::ublas::unbounded_array<double, std::__1::allocator<double> > > *> >::__RAII_IncreaseAnnotator", align 1
  %160 = alloca %"class.std::__1::allocator.4"*, align 8
  %161 = alloca %"class.boost::numeric::ublas::matrix"**, align 8
  %162 = alloca %"class.boost::numeric::ublas::matrix"**, align 8
  %163 = alloca %"class.boost::numeric::ublas::matrix"**, align 8
  %164 = alloca %"class.std::__1::__libcpp_compressed_pair_imp.3"*, align 8
  %165 = alloca %"class.std::__1::__compressed_pair.2"*, align 8
  %166 = alloca %"class.std::__1::__vector_base.1"*, align 8
  %167 = alloca %"class.std::__1::__libcpp_compressed_pair_imp.3"*, align 8
  %168 = alloca %"class.std::__1::__compressed_pair.2"*, align 8
  %169 = alloca %"class.std::__1::__vector_base.1"*, align 8
  %170 = alloca %"class.std::__1::vector.0"*, align 8
  %171 = alloca %"class.boost::numeric::ublas::matrix"**, align 8
  %172 = alloca %"struct.std::__1::vector<boost::numeric::ublas::matrix<double, boost::numeric::ublas::basic_row_major<unsigned long, long>, boost::numeric::ublas::unbounded_array<double, std::__1::allocator<double> > > *, std::__1::allocator<boost::numeric::ublas::matrix<double, boost::numeric::ublas::basic_row_major<unsigned long, long>, boost::numeric::ublas::unbounded_array<double, std::__1::allocator<double> > > *> >::__RAII_IncreaseAnnotator", align 1
  %173 = alloca i64, align 8
  %174 = alloca double*, align 8
  %175 = alloca i64, align 8
  %176 = alloca i64, align 8
  %177 = alloca double*, align 8
  %178 = alloca %"class.boost::numeric::ublas::vector<double, boost::numeric::ublas::unbounded_array<double, std::__1::allocator<double> > >::iterator", align 8
  %179 = alloca i8*
  %180 = alloca i32
  %181 = alloca %"struct.std::__1::random_access_iterator_tag", align 1
  %182 = alloca double*, align 8
  %183 = alloca %"class.boost::numeric::ublas::vector<double, boost::numeric::ublas::unbounded_array<double, std::__1::allocator<double> > >::iterator", align 8
  %184 = alloca %"class.boost::numeric::ublas::vector<double, boost::numeric::ublas::unbounded_array<double, std::__1::allocator<double> > >::iterator", align 8
  %185 = alloca i8*
  %186 = alloca i32
  %187 = alloca double*, align 8
  %188 = alloca %"class.boost::numeric::ublas::vector<double, boost::numeric::ublas::unbounded_array<double, std::__1::allocator<double> > >::iterator", align 8
  %189 = alloca %"class.boost::numeric::ublas::vector<double, boost::numeric::ublas::unbounded_array<double, std::__1::allocator<double> > >::iterator", align 8
  %190 = alloca %"struct.std::__1::random_access_iterator_tag", align 1
  %191 = alloca %"struct.boost::numeric::ublas::dense_random_access_iterator_tag", align 1
  %192 = alloca i8*
  %193 = alloca i32
  %194 = alloca i64, align 8
  %195 = alloca double*, align 8
  %196 = alloca i64, align 8
  %197 = alloca i64, align 8
  %198 = alloca double*, align 8
  %199 = alloca %"class.boost::numeric::ublas::vector<double, boost::numeric::ublas::unbounded_array<double, std::__1::allocator<double> > >::iterator", align 8
  %200 = alloca i8*
  %201 = alloca i32
  %202 = alloca %"struct.std::__1::random_access_iterator_tag", align 1
  %203 = alloca double*, align 8
  %204 = alloca %"class.boost::numeric::ublas::vector<double, boost::numeric::ublas::unbounded_array<double, std::__1::allocator<double> > >::iterator", align 8
  %205 = alloca %"class.boost::numeric::ublas::vector<double, boost::numeric::ublas::unbounded_array<double, std::__1::allocator<double> > >::iterator", align 8
  %206 = alloca i8*
  %207 = alloca i32
  %208 = alloca double*, align 8
  %209 = alloca %"class.boost::numeric::ublas::vector<double, boost::numeric::ublas::unbounded_array<double, std::__1::allocator<double> > >::iterator", align 8
  %210 = alloca %"class.boost::numeric::ublas::vector<double, boost::numeric::ublas::unbounded_array<double, std::__1::allocator<double> > >::iterator", align 8
  %211 = alloca %"struct.std::__1::random_access_iterator_tag", align 1
  %212 = alloca %"struct.boost::numeric::ublas::dense_random_access_iterator_tag", align 1
  %213 = alloca i8*
  %214 = alloca i32
  %215 = alloca i64, align 8
  %216 = alloca double*, align 8
  %217 = alloca i64, align 8
  %218 = alloca i64, align 8
  %219 = alloca double*, align 8
  %220 = alloca %"class.boost::numeric::ublas::vector<double, boost::numeric::ublas::unbounded_array<double, std::__1::allocator<double> > >::iterator", align 8
  %221 = alloca i8*
  %222 = alloca i32
  %223 = alloca %"struct.std::__1::random_access_iterator_tag", align 1
  %224 = alloca double*, align 8
  %225 = alloca %"class.boost::numeric::ublas::vector<double, boost::numeric::ublas::unbounded_array<double, std::__1::allocator<double> > >::iterator", align 8
  %226 = alloca %"class.boost::numeric::ublas::vector<double, boost::numeric::ublas::unbounded_array<double, std::__1::allocator<double> > >::iterator", align 8
  %227 = alloca i8*
  %228 = alloca i32
  %229 = alloca double*, align 8
  %230 = alloca %"class.boost::numeric::ublas::vector<double, boost::numeric::ublas::unbounded_array<double, std::__1::allocator<double> > >::iterator", align 8
  %231 = alloca %"class.boost::numeric::ublas::vector<double, boost::numeric::ublas::unbounded_array<double, std::__1::allocator<double> > >::iterator", align 8
  %232 = alloca %"struct.std::__1::random_access_iterator_tag", align 1
  %233 = alloca %"struct.boost::numeric::ublas::dense_random_access_iterator_tag", align 1
  %234 = alloca i8*
  %235 = alloca i32
  %236 = alloca %"class.std::__1::vector.12"*, align 8
  %237 = alloca i64, align 8
  %238 = alloca %"class.std::__1::vector.12"*, align 8
  %239 = alloca i64, align 8
  %240 = alloca %"class.std::__1::vector.12"*, align 8
  %241 = alloca %class.Network*, align 8
  %242 = alloca %"class.std::__1::vector.12"*, align 8
  %243 = alloca i32, align 4
  %244 = alloca i32, align 4
  %245 = alloca i32, align 4
  %246 = alloca %"class.boost::numeric::ublas::matrix"*, align 8
  %247 = alloca i8*
  %248 = alloca i32
  %249 = alloca %"class.boost::numeric::ublas::vector"*, align 8
  %250 = alloca %"class.boost::numeric::ublas::vector"*, align 8
  %251 = alloca %"class.boost::numeric::ublas::vector"*, align 8
  %252 = alloca %"class.boost::numeric::ublas::vector"*, align 8
  %253 = alloca i32, align 4
  %254 = alloca i32, align 4
  %255 = alloca i32, align 4
  %256 = alloca %"class.boost::numeric::ublas::vector<double, boost::numeric::ublas::unbounded_array<double, std::__1::allocator<double> > >::iterator", align 8
  %257 = alloca %"class.boost::numeric::ublas::vector<double, boost::numeric::ublas::unbounded_array<double, std::__1::allocator<double> > >::iterator", align 8
  %258 = alloca double, align 8
  %259 = alloca %"class.boost::numeric::ublas::vector<double, boost::numeric::ublas::unbounded_array<double, std::__1::allocator<double> > >::iterator", align 8
  %260 = alloca %"class.boost::numeric::ublas::vector<double, boost::numeric::ublas::unbounded_array<double, std::__1::allocator<double> > >::iterator", align 8
  %261 = alloca double, align 8
  %262 = alloca %"class.boost::numeric::ublas::vector<double, boost::numeric::ublas::unbounded_array<double, std::__1::allocator<double> > >::iterator", align 8
  %263 = alloca %"class.boost::numeric::ublas::vector<double, boost::numeric::ublas::unbounded_array<double, std::__1::allocator<double> > >::iterator", align 8
  %264 = alloca double, align 8
  %265 = alloca i32, align 4
  %266 = alloca %"class.boost::numeric::ublas::vector"*, align 8
  %267 = alloca %"class.boost::numeric::ublas::vector"*, align 8
  %268 = alloca %"class.boost::numeric::ublas::vector"*, align 8
  %269 = alloca %"class.boost::numeric::ublas::vector<double, boost::numeric::ublas::unbounded_array<double, std::__1::allocator<double> > >::iterator", align 8
  %270 = alloca %"class.boost::numeric::ublas::vector<double, boost::numeric::ublas::unbounded_array<double, std::__1::allocator<double> > >::iterator", align 8
  %271 = alloca double, align 8
  %272 = alloca %"class.boost::numeric::ublas::vector<double, boost::numeric::ublas::unbounded_array<double, std::__1::allocator<double> > >::iterator", align 8
  %273 = alloca %"class.boost::numeric::ublas::vector<double, boost::numeric::ublas::unbounded_array<double, std::__1::allocator<double> > >::iterator", align 8
  %274 = alloca double, align 8
  %275 = alloca %"class.boost::numeric::ublas::vector<double, boost::numeric::ublas::unbounded_array<double, std::__1::allocator<double> > >::iterator", align 8
  %276 = alloca %"class.boost::numeric::ublas::vector<double, boost::numeric::ublas::unbounded_array<double, std::__1::allocator<double> > >::iterator", align 8
  %277 = alloca double, align 8
  store %class.Network* %0, %class.Network** %241, align 8
  store %"class.std::__1::vector.12"* %1, %"class.std::__1::vector.12"** %242, align 8
  %278 = load %class.Network*, %class.Network** %241, align 8
  store i32 0, i32* %243, align 4
  br label %279

; <label>:279:                                    ; preds = %888, %2
  %280 = load i32, i32* %243, align 4
  %281 = zext i32 %280 to i64
  %282 = load %"class.std::__1::vector.12"*, %"class.std::__1::vector.12"** %242, align 8
  store %"class.std::__1::vector.12"* %282, %"class.std::__1::vector.12"** %240, align 8
  %283 = load %"class.std::__1::vector.12"*, %"class.std::__1::vector.12"** %240, align 8
  %284 = bitcast %"class.std::__1::vector.12"* %283 to %"class.std::__1::__vector_base.13"*
  %285 = getelementptr inbounds %"class.std::__1::__vector_base.13", %"class.std::__1::__vector_base.13"* %284, i32 0, i32 1
  %286 = load i32*, i32** %285, align 8
  %287 = bitcast %"class.std::__1::vector.12"* %283 to %"class.std::__1::__vector_base.13"*
  %288 = getelementptr inbounds %"class.std::__1::__vector_base.13", %"class.std::__1::__vector_base.13"* %287, i32 0, i32 0
  %289 = load i32*, i32** %288, align 8
  %290 = ptrtoint i32* %286 to i64
  %291 = ptrtoint i32* %289 to i64
  %292 = sub i64 0, %291
  %293 = add i64 %290, %292
  %294 = sub i64 %290, %291
  %295 = sdiv exact i64 %293, 4
  %296 = add i64 %295, 214983678825944431
  %297 = sub i64 %296, 1
  %298 = sub i64 %297, 214983678825944431
  %299 = sub i64 %295, 1
  %300 = icmp ult i64 %281, %298
  br i1 %300, label %301, label %932

; <label>:301:                                    ; preds = %279
  %302 = load %"class.std::__1::vector.12"*, %"class.std::__1::vector.12"** %242, align 8
  %303 = load i32, i32* %243, align 4
  %304 = sub i32 %303, -1790268071
  %305 = add i32 %304, 1
  %306 = add i32 %305, -1790268071
  %307 = add i32 %303, 1
  %308 = zext i32 %306 to i64
  store %"class.std::__1::vector.12"* %302, %"class.std::__1::vector.12"** %238, align 8
  store i64 %308, i64* %239, align 8
  %309 = load %"class.std::__1::vector.12"*, %"class.std::__1::vector.12"** %238, align 8
  %310 = bitcast %"class.std::__1::vector.12"* %309 to %"class.std::__1::__vector_base.13"*
  %311 = getelementptr inbounds %"class.std::__1::__vector_base.13", %"class.std::__1::__vector_base.13"* %310, i32 0, i32 0
  %312 = load i32*, i32** %311, align 8
  %313 = load i64, i64* %239, align 8
  %314 = getelementptr inbounds i32, i32* %312, i64 %313
  %315 = load i32, i32* %314, align 4
  store i32 %315, i32* %244, align 4
  %316 = load %"class.std::__1::vector.12"*, %"class.std::__1::vector.12"** %242, align 8
  %317 = load i32, i32* %243, align 4
  %318 = zext i32 %317 to i64
  store %"class.std::__1::vector.12"* %316, %"class.std::__1::vector.12"** %236, align 8
  store i64 %318, i64* %237, align 8
  %319 = load %"class.std::__1::vector.12"*, %"class.std::__1::vector.12"** %236, align 8
  %320 = bitcast %"class.std::__1::vector.12"* %319 to %"class.std::__1::__vector_base.13"*
  %321 = getelementptr inbounds %"class.std::__1::__vector_base.13", %"class.std::__1::__vector_base.13"* %320, i32 0, i32 0
  %322 = load i32*, i32** %321, align 8
  %323 = load i64, i64* %237, align 8
  %324 = getelementptr inbounds i32, i32* %322, i64 %323
  %325 = load i32, i32* %324, align 4
  store i32 %325, i32* %245, align 4
  %326 = call i8* @_Znwm(i64 40) #13
  %327 = bitcast i8* %326 to %"class.boost::numeric::ublas::matrix"*
  %328 = load i32, i32* %244, align 4
  %329 = sext i32 %328 to i64
  %330 = load i32, i32* %245, align 4
  %331 = sext i32 %330 to i64
  invoke void @_ZN5boost7numeric5ublas6matrixIdNS1_15basic_row_majorImlEENS1_15unbounded_arrayIdNSt3__19allocatorIdEEEEEC1Emm(%"class.boost::numeric::ublas::matrix"* %327, i64 %329, i64 %331)
          to label %332 unwind label %383

; <label>:332:                                    ; preds = %301
  store %"class.boost::numeric::ublas::matrix"* %327, %"class.boost::numeric::ublas::matrix"** %246, align 8
  %333 = call i8* @_Znwm(i64 24) #13
  %334 = bitcast i8* %333 to %"class.boost::numeric::ublas::vector"*
  %335 = load i32, i32* %245, align 4
  %336 = sext i32 %335 to i64
  invoke void @_ZN5boost7numeric5ublas6vectorIdNS1_15unbounded_arrayIdNSt3__19allocatorIdEEEEEC1Em(%"class.boost::numeric::ublas::vector"* %334, i64 %336)
          to label %337 unwind label %387

; <label>:337:                                    ; preds = %332
  store %"class.boost::numeric::ublas::vector"* %334, %"class.boost::numeric::ublas::vector"** %249, align 8
  %338 = call i8* @_Znwm(i64 24) #13
  %339 = bitcast i8* %338 to %"class.boost::numeric::ublas::vector"*
  %340 = load i32, i32* %245, align 4
  %341 = sext i32 %340 to i64
  invoke void @_ZN5boost7numeric5ublas6vectorIdNS1_15unbounded_arrayIdNSt3__19allocatorIdEEEEEC1Em(%"class.boost::numeric::ublas::vector"* %339, i64 %341)
          to label %342 unwind label %391

; <label>:342:                                    ; preds = %337
  store %"class.boost::numeric::ublas::vector"* %339, %"class.boost::numeric::ublas::vector"** %250, align 8
  %343 = call i8* @_Znwm(i64 24) #13
  %344 = bitcast i8* %343 to %"class.boost::numeric::ublas::vector"*
  %345 = load i32, i32* %245, align 4
  %346 = sext i32 %345 to i64
  invoke void @_ZN5boost7numeric5ublas6vectorIdNS1_15unbounded_arrayIdNSt3__19allocatorIdEEEEEC1Em(%"class.boost::numeric::ublas::vector"* %344, i64 %346)
          to label %347 unwind label %395

; <label>:347:                                    ; preds = %342
  store %"class.boost::numeric::ublas::vector"* %344, %"class.boost::numeric::ublas::vector"** %251, align 8
  %348 = call i8* @_Znwm(i64 24) #13
  %349 = bitcast i8* %348 to %"class.boost::numeric::ublas::vector"*
  %350 = load i32, i32* %244, align 4
  %351 = sext i32 %350 to i64
  invoke void @_ZN5boost7numeric5ublas6vectorIdNS1_15unbounded_arrayIdNSt3__19allocatorIdEEEEEC1Em(%"class.boost::numeric::ublas::vector"* %349, i64 %351)
          to label %352 unwind label %399

; <label>:352:                                    ; preds = %347
  store %"class.boost::numeric::ublas::vector"* %349, %"class.boost::numeric::ublas::vector"** %252, align 8
  store i32 0, i32* %253, align 4
  br label %353

; <label>:353:                                    ; preds = %404, %352
  %354 = load i32, i32* %253, align 4
  %355 = zext i32 %354 to i64
  %356 = load %"class.boost::numeric::ublas::matrix"*, %"class.boost::numeric::ublas::matrix"** %246, align 8
  %357 = call i64 @_ZNK5boost7numeric5ublas6matrixIdNS1_15basic_row_majorImlEENS1_15unbounded_arrayIdNSt3__19allocatorIdEEEEE5size1Ev(%"class.boost::numeric::ublas::matrix"* %356)
  %358 = icmp ult i64 %355, %357
  br i1 %358, label %359, label %410

; <label>:359:                                    ; preds = %353
  store i32 0, i32* %254, align 4
  br label %360

; <label>:360:                                    ; preds = %376, %359
  %361 = load i32, i32* %254, align 4
  %362 = zext i32 %361 to i64
  %363 = load %"class.boost::numeric::ublas::matrix"*, %"class.boost::numeric::ublas::matrix"** %246, align 8
  %364 = call i64 @_ZNK5boost7numeric5ublas6matrixIdNS1_15basic_row_majorImlEENS1_15unbounded_arrayIdNSt3__19allocatorIdEEEEE5size2Ev(%"class.boost::numeric::ublas::matrix"* %363)
  %365 = icmp ult i64 %362, %364
  br i1 %365, label %366, label %403

; <label>:366:                                    ; preds = %360
  %367 = call i32 @rand()
  %368 = sitofp i32 %367 to double
  %369 = fdiv double %368, 0x41DFFFFFFFC00000
  %370 = load %"class.boost::numeric::ublas::matrix"*, %"class.boost::numeric::ublas::matrix"** %246, align 8
  %371 = load i32, i32* %253, align 4
  %372 = zext i32 %371 to i64
  %373 = load i32, i32* %254, align 4
  %374 = zext i32 %373 to i64
  %375 = call dereferenceable(8) double* @_ZN5boost7numeric5ublas6matrixIdNS1_15basic_row_majorImlEENS1_15unbounded_arrayIdNSt3__19allocatorIdEEEEEclEmm(%"class.boost::numeric::ublas::matrix"* %370, i64 %372, i64 %374)
  store double %369, double* %375, align 8
  br label %376

; <label>:376:                                    ; preds = %366
  %377 = load i32, i32* %254, align 4
  %378 = sub i32 0, %377
  %379 = sub i32 0, 1
  %380 = add i32 %378, %379
  %381 = sub i32 0, %380
  %382 = add i32 %377, 1
  store i32 %381, i32* %254, align 4
  br label %360

; <label>:383:                                    ; preds = %301
  %384 = landingpad { i8*, i32 }
          cleanup
  %385 = extractvalue { i8*, i32 } %384, 0
  store i8* %385, i8** %247, align 8
  %386 = extractvalue { i8*, i32 } %384, 1
  store i32 %386, i32* %248, align 4
  call void @_ZdlPv(i8* %326) #14
  br label %1406

; <label>:387:                                    ; preds = %332
  %388 = landingpad { i8*, i32 }
          cleanup
  %389 = extractvalue { i8*, i32 } %388, 0
  store i8* %389, i8** %247, align 8
  %390 = extractvalue { i8*, i32 } %388, 1
  store i32 %390, i32* %248, align 4
  call void @_ZdlPv(i8* %333) #14
  br label %1406

; <label>:391:                                    ; preds = %337
  %392 = landingpad { i8*, i32 }
          cleanup
  %393 = extractvalue { i8*, i32 } %392, 0
  store i8* %393, i8** %247, align 8
  %394 = extractvalue { i8*, i32 } %392, 1
  store i32 %394, i32* %248, align 4
  call void @_ZdlPv(i8* %338) #14
  br label %1406

; <label>:395:                                    ; preds = %342
  %396 = landingpad { i8*, i32 }
          cleanup
  %397 = extractvalue { i8*, i32 } %396, 0
  store i8* %397, i8** %247, align 8
  %398 = extractvalue { i8*, i32 } %396, 1
  store i32 %398, i32* %248, align 4
  call void @_ZdlPv(i8* %343) #14
  br label %1406

; <label>:399:                                    ; preds = %347
  %400 = landingpad { i8*, i32 }
          cleanup
  %401 = extractvalue { i8*, i32 } %400, 0
  store i8* %401, i8** %247, align 8
  %402 = extractvalue { i8*, i32 } %400, 1
  store i32 %402, i32* %248, align 4
  call void @_ZdlPv(i8* %348) #14
  br label %1406

; <label>:403:                                    ; preds = %360
  br label %404

; <label>:404:                                    ; preds = %403
  %405 = load i32, i32* %253, align 4
  %406 = add i32 %405, 1536946970
  %407 = add i32 %406, 1
  %408 = sub i32 %407, 1536946970
  %409 = add i32 %405, 1
  store i32 %408, i32* %253, align 4
  br label %353

; <label>:410:                                    ; preds = %353
  store i32 0, i32* %255, align 4
  br label %411

; <label>:411:                                    ; preds = %423, %410
  %412 = load i32, i32* %255, align 4
  %413 = load i32, i32* %244, align 4
  %414 = icmp slt i32 %412, %413
  br i1 %414, label %415, label %430

; <label>:415:                                    ; preds = %411
  %416 = call i32 @rand()
  %417 = sitofp i32 %416 to double
  %418 = fdiv double %417, 0x41DFFFFFFFC00000
  %419 = load %"class.boost::numeric::ublas::vector"*, %"class.boost::numeric::ublas::vector"** %252, align 8
  %420 = load i32, i32* %255, align 4
  %421 = sext i32 %420 to i64
  %422 = call dereferenceable(8) double* @_ZN5boost7numeric5ublas6vectorIdNS1_15unbounded_arrayIdNSt3__19allocatorIdEEEEEixEm(%"class.boost::numeric::ublas::vector"* %419, i64 %421)
  store double %418, double* %422, align 8
  br label %423

; <label>:423:                                    ; preds = %415
  %424 = load i32, i32* %255, align 4
  %425 = sub i32 0, %424
  %426 = sub i32 0, 1
  %427 = add i32 %425, %426
  %428 = sub i32 0, %427
  %429 = add nsw i32 %424, 1
  store i32 %428, i32* %255, align 4
  br label %411

; <label>:430:                                    ; preds = %411
  %431 = load %"class.boost::numeric::ublas::vector"*, %"class.boost::numeric::ublas::vector"** %249, align 8
  call void @_ZN5boost7numeric5ublas6vectorIdNS1_15unbounded_arrayIdNSt3__19allocatorIdEEEEE5beginEv(%"class.boost::numeric::ublas::vector<double, boost::numeric::ublas::unbounded_array<double, std::__1::allocator<double> > >::iterator"* sret %256, %"class.boost::numeric::ublas::vector"* %431)
  %432 = load %"class.boost::numeric::ublas::vector"*, %"class.boost::numeric::ublas::vector"** %249, align 8
  invoke void @_ZN5boost7numeric5ublas6vectorIdNS1_15unbounded_arrayIdNSt3__19allocatorIdEEEEE3endEv(%"class.boost::numeric::ublas::vector<double, boost::numeric::ublas::unbounded_array<double, std::__1::allocator<double> > >::iterator"* sret %257, %"class.boost::numeric::ublas::vector"* %432)
          to label %433 unwind label %893

; <label>:433:                                    ; preds = %430
  store double 0.000000e+00, double* %258, align 8
  store double* %258, double** %229, align 8
  %434 = bitcast %"class.boost::numeric::ublas::vector<double, boost::numeric::ublas::unbounded_array<double, std::__1::allocator<double> > >::iterator"* %230 to i8*
  %435 = bitcast %"class.boost::numeric::ublas::vector<double, boost::numeric::ublas::unbounded_array<double, std::__1::allocator<double> > >::iterator"* %256 to i8*
  call void @llvm.memcpy.p0i8.p0i8.i64(i8* %434, i8* %435, i64 16, i32 8, i1 false)
  %436 = bitcast %"class.boost::numeric::ublas::vector<double, boost::numeric::ublas::unbounded_array<double, std::__1::allocator<double> > >::iterator"* %231 to i8*
  %437 = bitcast %"class.boost::numeric::ublas::vector<double, boost::numeric::ublas::unbounded_array<double, std::__1::allocator<double> > >::iterator"* %257 to i8*
  call void @llvm.memcpy.p0i8.p0i8.i64(i8* %436, i8* %437, i64 16, i32 8, i1 false)
  %438 = load double*, double** %229, align 8
  %439 = bitcast %"struct.boost::numeric::ublas::dense_random_access_iterator_tag"* %233 to %"struct.std::__1::random_access_iterator_tag"*
  store double* %438, double** %224, align 8
  %440 = bitcast %"class.boost::numeric::ublas::vector<double, boost::numeric::ublas::unbounded_array<double, std::__1::allocator<double> > >::iterator"* %226 to i8*
  %441 = bitcast %"class.boost::numeric::ublas::vector<double, boost::numeric::ublas::unbounded_array<double, std::__1::allocator<double> > >::iterator"* %230 to i8*
  call void @llvm.memcpy.p0i8.p0i8.i64(i8* %440, i8* %441, i64 16, i32 8, i1 false)
  %442 = invoke i64 @_ZNK5boost7numeric5ublas6vectorIdNS1_15unbounded_arrayIdNSt3__19allocatorIdEEEEE8iteratormiERKS9_(%"class.boost::numeric::ublas::vector<double, boost::numeric::ublas::unbounded_array<double, std::__1::allocator<double> > >::iterator"* %231, %"class.boost::numeric::ublas::vector<double, boost::numeric::ublas::unbounded_array<double, std::__1::allocator<double> > >::iterator"* dereferenceable(16) %230)
          to label %443 unwind label %480

; <label>:443:                                    ; preds = %433
  %444 = load double*, double** %224, align 8
  store i64 %442, i64* %218, align 8, !noalias !2
  store double* %444, double** %219, align 8, !noalias !2
  %445 = bitcast %"class.boost::numeric::ublas::vector<double, boost::numeric::ublas::unbounded_array<double, std::__1::allocator<double> > >::iterator"* %220 to i8*
  %446 = bitcast %"class.boost::numeric::ublas::vector<double, boost::numeric::ublas::unbounded_array<double, std::__1::allocator<double> > >::iterator"* %226 to i8*
  call void @llvm.memcpy.p0i8.p0i8.i64(i8* %445, i8* %446, i64 16, i32 8, i1 false), !noalias !2
  %447 = load i64, i64* %218, align 8, !noalias !2
  store i64 %447, i64* %217, align 8, !noalias !2
  %448 = load i64, i64* %217, align 8, !noalias !2
  %449 = load double*, double** %219, align 8, !noalias !2
  store i64 %448, i64* %215, align 8, !noalias !5
  store double* %449, double** %216, align 8, !noalias !5
  br label %450

; <label>:450:                                    ; preds = %457, %443
  %451 = load i64, i64* %215, align 8, !noalias !5
  %452 = icmp sgt i64 %451, 0
  br i1 %452, label %453, label %463

; <label>:453:                                    ; preds = %450
  %454 = load double*, double** %216, align 8, !noalias !5
  %455 = load double, double* %454, align 8, !noalias !5
  %456 = invoke dereferenceable(8) double* @_ZNK5boost7numeric5ublas6vectorIdNS1_15unbounded_arrayIdNSt3__19allocatorIdEEEEE8iteratordeEv(%"class.boost::numeric::ublas::vector<double, boost::numeric::ublas::unbounded_array<double, std::__1::allocator<double> > >::iterator"* %220)
          to label %457 unwind label %466, !noalias !2

; <label>:457:                                    ; preds = %453
  store double %455, double* %456, align 8, !noalias !5
  %458 = call dereferenceable(16) %"class.boost::numeric::ublas::vector<double, boost::numeric::ublas::unbounded_array<double, std::__1::allocator<double> > >::iterator"* @_ZN5boost7numeric5ublas6vectorIdNS1_15unbounded_arrayIdNSt3__19allocatorIdEEEEE8iteratorppEv(%"class.boost::numeric::ublas::vector<double, boost::numeric::ublas::unbounded_array<double, std::__1::allocator<double> > >::iterator"* %220), !noalias !5
  %459 = load i64, i64* %215, align 8, !noalias !5
  %460 = sub i64 0, -1
  %461 = sub i64 %459, %460
  %462 = add nsw i64 %459, -1
  store i64 %461, i64* %215, align 8, !noalias !5
  br label %450

; <label>:463:                                    ; preds = %450
  %464 = bitcast %"class.boost::numeric::ublas::vector<double, boost::numeric::ublas::unbounded_array<double, std::__1::allocator<double> > >::iterator"* %225 to i8*
  %465 = bitcast %"class.boost::numeric::ublas::vector<double, boost::numeric::ublas::unbounded_array<double, std::__1::allocator<double> > >::iterator"* %220 to i8*
  call void @llvm.memcpy.p0i8.p0i8.i64(i8* %464, i8* %465, i64 16, i32 8, i1 false)
  invoke void @_ZN5boost7numeric5ublas6vectorIdNS1_15unbounded_arrayIdNSt3__19allocatorIdEEEEE8iteratorD1Ev(%"class.boost::numeric::ublas::vector<double, boost::numeric::ublas::unbounded_array<double, std::__1::allocator<double> > >::iterator"* %220)
          to label %478 unwind label %480

; <label>:466:                                    ; preds = %453
  %467 = landingpad { i8*, i32 }
          cleanup
  %468 = extractvalue { i8*, i32 } %467, 0
  store i8* %468, i8** %221, align 8, !noalias !2
  %469 = extractvalue { i8*, i32 } %467, 1
  store i32 %469, i32* %222, align 4, !noalias !2
  invoke void @_ZN5boost7numeric5ublas6vectorIdNS1_15unbounded_arrayIdNSt3__19allocatorIdEEEEE8iteratorD1Ev(%"class.boost::numeric::ublas::vector<double, boost::numeric::ublas::unbounded_array<double, std::__1::allocator<double> > >::iterator"* %220)
          to label %470 unwind label %475, !noalias !2

; <label>:470:                                    ; preds = %466
  %471 = load i8*, i8** %221, align 8, !noalias !2
  %472 = load i32, i32* %222, align 4, !noalias !2
  %473 = insertvalue { i8*, i32 } undef, i8* %471, 0
  %474 = insertvalue { i8*, i32 } %473, i32 %472, 1
  br label %482

; <label>:475:                                    ; preds = %466
  %476 = landingpad { i8*, i32 }
          cleanup
          catch i8* null
  %477 = extractvalue { i8*, i32 } %476, 0
  call void @__clang_call_terminate(i8* %477) #15, !noalias !2
  unreachable

; <label>:478:                                    ; preds = %463
  invoke void @_ZN5boost7numeric5ublas6vectorIdNS1_15unbounded_arrayIdNSt3__19allocatorIdEEEEE8iteratorD1Ev(%"class.boost::numeric::ublas::vector<double, boost::numeric::ublas::unbounded_array<double, std::__1::allocator<double> > >::iterator"* %225)
          to label %479 unwind label %480

; <label>:479:                                    ; preds = %478
  invoke void @_ZN5boost7numeric5ublas6vectorIdNS1_15unbounded_arrayIdNSt3__19allocatorIdEEEEE8iteratorD1Ev(%"class.boost::numeric::ublas::vector<double, boost::numeric::ublas::unbounded_array<double, std::__1::allocator<double> > >::iterator"* %226)
          to label %494 unwind label %496

; <label>:480:                                    ; preds = %478, %463, %433
  %481 = landingpad { i8*, i32 }
          cleanup
  br label %482

; <label>:482:                                    ; preds = %480, %470
  %483 = phi { i8*, i32 } [ %481, %480 ], [ %474, %470 ]
  %484 = extractvalue { i8*, i32 } %483, 0
  store i8* %484, i8** %227, align 8
  %485 = extractvalue { i8*, i32 } %483, 1
  store i32 %485, i32* %228, align 4
  invoke void @_ZN5boost7numeric5ublas6vectorIdNS1_15unbounded_arrayIdNSt3__19allocatorIdEEEEE8iteratorD1Ev(%"class.boost::numeric::ublas::vector<double, boost::numeric::ublas::unbounded_array<double, std::__1::allocator<double> > >::iterator"* %226)
          to label %486 unwind label %491

; <label>:486:                                    ; preds = %482
  %487 = load i8*, i8** %227, align 8
  %488 = load i32, i32* %228, align 4
  %489 = insertvalue { i8*, i32 } undef, i8* %487, 0
  %490 = insertvalue { i8*, i32 } %489, i32 %488, 1
  br label %498

; <label>:491:                                    ; preds = %482
  %492 = landingpad { i8*, i32 }
          cleanup
          catch i8* null
  %493 = extractvalue { i8*, i32 } %492, 0
  call void @__clang_call_terminate(i8* %493) #15
  unreachable

; <label>:494:                                    ; preds = %479
  invoke void @_ZN5boost7numeric5ublas6vectorIdNS1_15unbounded_arrayIdNSt3__19allocatorIdEEEEE8iteratorD1Ev(%"class.boost::numeric::ublas::vector<double, boost::numeric::ublas::unbounded_array<double, std::__1::allocator<double> > >::iterator"* %231)
          to label %495 unwind label %502

; <label>:495:                                    ; preds = %494
  invoke void @_ZN5boost7numeric5ublas6vectorIdNS1_15unbounded_arrayIdNSt3__19allocatorIdEEEEE8iteratorD1Ev(%"class.boost::numeric::ublas::vector<double, boost::numeric::ublas::unbounded_array<double, std::__1::allocator<double> > >::iterator"* %230)
          to label %516 unwind label %897

; <label>:496:                                    ; preds = %479
  %497 = landingpad { i8*, i32 }
          cleanup
  br label %498

; <label>:498:                                    ; preds = %496, %486
  %499 = phi { i8*, i32 } [ %497, %496 ], [ %490, %486 ]
  %500 = extractvalue { i8*, i32 } %499, 0
  store i8* %500, i8** %234, align 8
  %501 = extractvalue { i8*, i32 } %499, 1
  store i32 %501, i32* %235, align 4
  invoke void @_ZN5boost7numeric5ublas6vectorIdNS1_15unbounded_arrayIdNSt3__19allocatorIdEEEEE8iteratorD1Ev(%"class.boost::numeric::ublas::vector<double, boost::numeric::ublas::unbounded_array<double, std::__1::allocator<double> > >::iterator"* %231)
          to label %506 unwind label %513

; <label>:502:                                    ; preds = %494
  %503 = landingpad { i8*, i32 }
          cleanup
  %504 = extractvalue { i8*, i32 } %503, 0
  store i8* %504, i8** %234, align 8
  %505 = extractvalue { i8*, i32 } %503, 1
  store i32 %505, i32* %235, align 4
  br label %507

; <label>:506:                                    ; preds = %498
  br label %507

; <label>:507:                                    ; preds = %506, %502
  invoke void @_ZN5boost7numeric5ublas6vectorIdNS1_15unbounded_arrayIdNSt3__19allocatorIdEEEEE8iteratorD1Ev(%"class.boost::numeric::ublas::vector<double, boost::numeric::ublas::unbounded_array<double, std::__1::allocator<double> > >::iterator"* %230)
          to label %508 unwind label %513

; <label>:508:                                    ; preds = %507
  %509 = load i8*, i8** %234, align 8
  %510 = load i32, i32* %235, align 4
  %511 = insertvalue { i8*, i32 } undef, i8* %509, 0
  %512 = insertvalue { i8*, i32 } %511, i32 %510, 1
  br label %899

; <label>:513:                                    ; preds = %507, %498
  %514 = landingpad { i8*, i32 }
          cleanup
          catch i8* null
  %515 = extractvalue { i8*, i32 } %514, 0
  call void @__clang_call_terminate(i8* %515) #15
  unreachable

; <label>:516:                                    ; preds = %495
  br label %517

; <label>:517:                                    ; preds = %516
  invoke void @_ZN5boost7numeric5ublas6vectorIdNS1_15unbounded_arrayIdNSt3__19allocatorIdEEEEE8iteratorD1Ev(%"class.boost::numeric::ublas::vector<double, boost::numeric::ublas::unbounded_array<double, std::__1::allocator<double> > >::iterator"* %257)
          to label %518 unwind label %893

; <label>:518:                                    ; preds = %517
  call void @_ZN5boost7numeric5ublas6vectorIdNS1_15unbounded_arrayIdNSt3__19allocatorIdEEEEE8iteratorD1Ev(%"class.boost::numeric::ublas::vector<double, boost::numeric::ublas::unbounded_array<double, std::__1::allocator<double> > >::iterator"* %256)
  %519 = load %"class.boost::numeric::ublas::vector"*, %"class.boost::numeric::ublas::vector"** %250, align 8
  call void @_ZN5boost7numeric5ublas6vectorIdNS1_15unbounded_arrayIdNSt3__19allocatorIdEEEEE5beginEv(%"class.boost::numeric::ublas::vector<double, boost::numeric::ublas::unbounded_array<double, std::__1::allocator<double> > >::iterator"* sret %259, %"class.boost::numeric::ublas::vector"* %519)
  %520 = load %"class.boost::numeric::ublas::vector"*, %"class.boost::numeric::ublas::vector"** %250, align 8
  invoke void @_ZN5boost7numeric5ublas6vectorIdNS1_15unbounded_arrayIdNSt3__19allocatorIdEEEEE3endEv(%"class.boost::numeric::ublas::vector<double, boost::numeric::ublas::unbounded_array<double, std::__1::allocator<double> > >::iterator"* sret %260, %"class.boost::numeric::ublas::vector"* %520)
          to label %521 unwind label %906

; <label>:521:                                    ; preds = %518
  store double 0.000000e+00, double* %261, align 8
  store double* %261, double** %208, align 8
  %522 = bitcast %"class.boost::numeric::ublas::vector<double, boost::numeric::ublas::unbounded_array<double, std::__1::allocator<double> > >::iterator"* %209 to i8*
  %523 = bitcast %"class.boost::numeric::ublas::vector<double, boost::numeric::ublas::unbounded_array<double, std::__1::allocator<double> > >::iterator"* %259 to i8*
  call void @llvm.memcpy.p0i8.p0i8.i64(i8* %522, i8* %523, i64 16, i32 8, i1 false)
  %524 = bitcast %"class.boost::numeric::ublas::vector<double, boost::numeric::ublas::unbounded_array<double, std::__1::allocator<double> > >::iterator"* %210 to i8*
  %525 = bitcast %"class.boost::numeric::ublas::vector<double, boost::numeric::ublas::unbounded_array<double, std::__1::allocator<double> > >::iterator"* %260 to i8*
  call void @llvm.memcpy.p0i8.p0i8.i64(i8* %524, i8* %525, i64 16, i32 8, i1 false)
  %526 = load double*, double** %208, align 8
  %527 = bitcast %"struct.boost::numeric::ublas::dense_random_access_iterator_tag"* %212 to %"struct.std::__1::random_access_iterator_tag"*
  store double* %526, double** %203, align 8
  %528 = bitcast %"class.boost::numeric::ublas::vector<double, boost::numeric::ublas::unbounded_array<double, std::__1::allocator<double> > >::iterator"* %205 to i8*
  %529 = bitcast %"class.boost::numeric::ublas::vector<double, boost::numeric::ublas::unbounded_array<double, std::__1::allocator<double> > >::iterator"* %209 to i8*
  call void @llvm.memcpy.p0i8.p0i8.i64(i8* %528, i8* %529, i64 16, i32 8, i1 false)
  %530 = invoke i64 @_ZNK5boost7numeric5ublas6vectorIdNS1_15unbounded_arrayIdNSt3__19allocatorIdEEEEE8iteratormiERKS9_(%"class.boost::numeric::ublas::vector<double, boost::numeric::ublas::unbounded_array<double, std::__1::allocator<double> > >::iterator"* %210, %"class.boost::numeric::ublas::vector<double, boost::numeric::ublas::unbounded_array<double, std::__1::allocator<double> > >::iterator"* dereferenceable(16) %209)
          to label %531 unwind label %569

; <label>:531:                                    ; preds = %521
  %532 = load double*, double** %203, align 8
  store i64 %530, i64* %197, align 8, !noalias !8
  store double* %532, double** %198, align 8, !noalias !8
  %533 = bitcast %"class.boost::numeric::ublas::vector<double, boost::numeric::ublas::unbounded_array<double, std::__1::allocator<double> > >::iterator"* %199 to i8*
  %534 = bitcast %"class.boost::numeric::ublas::vector<double, boost::numeric::ublas::unbounded_array<double, std::__1::allocator<double> > >::iterator"* %205 to i8*
  call void @llvm.memcpy.p0i8.p0i8.i64(i8* %533, i8* %534, i64 16, i32 8, i1 false), !noalias !8
  %535 = load i64, i64* %197, align 8, !noalias !8
  store i64 %535, i64* %196, align 8, !noalias !8
  %536 = load i64, i64* %196, align 8, !noalias !8
  %537 = load double*, double** %198, align 8, !noalias !8
  store i64 %536, i64* %194, align 8, !noalias !11
  store double* %537, double** %195, align 8, !noalias !11
  br label %538

; <label>:538:                                    ; preds = %545, %531
  %539 = load i64, i64* %194, align 8, !noalias !11
  %540 = icmp sgt i64 %539, 0
  br i1 %540, label %541, label %552

; <label>:541:                                    ; preds = %538
  %542 = load double*, double** %195, align 8, !noalias !11
  %543 = load double, double* %542, align 8, !noalias !11
  %544 = invoke dereferenceable(8) double* @_ZNK5boost7numeric5ublas6vectorIdNS1_15unbounded_arrayIdNSt3__19allocatorIdEEEEE8iteratordeEv(%"class.boost::numeric::ublas::vector<double, boost::numeric::ublas::unbounded_array<double, std::__1::allocator<double> > >::iterator"* %199)
          to label %545 unwind label %555, !noalias !8

; <label>:545:                                    ; preds = %541
  store double %543, double* %544, align 8, !noalias !11
  %546 = call dereferenceable(16) %"class.boost::numeric::ublas::vector<double, boost::numeric::ublas::unbounded_array<double, std::__1::allocator<double> > >::iterator"* @_ZN5boost7numeric5ublas6vectorIdNS1_15unbounded_arrayIdNSt3__19allocatorIdEEEEE8iteratorppEv(%"class.boost::numeric::ublas::vector<double, boost::numeric::ublas::unbounded_array<double, std::__1::allocator<double> > >::iterator"* %199), !noalias !11
  %547 = load i64, i64* %194, align 8, !noalias !11
  %548 = sub i64 %547, 7989648231239104335
  %549 = add i64 %548, -1
  %550 = add i64 %549, 7989648231239104335
  %551 = add nsw i64 %547, -1
  store i64 %550, i64* %194, align 8, !noalias !11
  br label %538

; <label>:552:                                    ; preds = %538
  %553 = bitcast %"class.boost::numeric::ublas::vector<double, boost::numeric::ublas::unbounded_array<double, std::__1::allocator<double> > >::iterator"* %204 to i8*
  %554 = bitcast %"class.boost::numeric::ublas::vector<double, boost::numeric::ublas::unbounded_array<double, std::__1::allocator<double> > >::iterator"* %199 to i8*
  call void @llvm.memcpy.p0i8.p0i8.i64(i8* %553, i8* %554, i64 16, i32 8, i1 false)
  invoke void @_ZN5boost7numeric5ublas6vectorIdNS1_15unbounded_arrayIdNSt3__19allocatorIdEEEEE8iteratorD1Ev(%"class.boost::numeric::ublas::vector<double, boost::numeric::ublas::unbounded_array<double, std::__1::allocator<double> > >::iterator"* %199)
          to label %567 unwind label %569

; <label>:555:                                    ; preds = %541
  %556 = landingpad { i8*, i32 }
          cleanup
  %557 = extractvalue { i8*, i32 } %556, 0
  store i8* %557, i8** %200, align 8, !noalias !8
  %558 = extractvalue { i8*, i32 } %556, 1
  store i32 %558, i32* %201, align 4, !noalias !8
  invoke void @_ZN5boost7numeric5ublas6vectorIdNS1_15unbounded_arrayIdNSt3__19allocatorIdEEEEE8iteratorD1Ev(%"class.boost::numeric::ublas::vector<double, boost::numeric::ublas::unbounded_array<double, std::__1::allocator<double> > >::iterator"* %199)
          to label %559 unwind label %564, !noalias !8

; <label>:559:                                    ; preds = %555
  %560 = load i8*, i8** %200, align 8, !noalias !8
  %561 = load i32, i32* %201, align 4, !noalias !8
  %562 = insertvalue { i8*, i32 } undef, i8* %560, 0
  %563 = insertvalue { i8*, i32 } %562, i32 %561, 1
  br label %571

; <label>:564:                                    ; preds = %555
  %565 = landingpad { i8*, i32 }
          cleanup
          catch i8* null
  %566 = extractvalue { i8*, i32 } %565, 0
  call void @__clang_call_terminate(i8* %566) #15, !noalias !8
  unreachable

; <label>:567:                                    ; preds = %552
  invoke void @_ZN5boost7numeric5ublas6vectorIdNS1_15unbounded_arrayIdNSt3__19allocatorIdEEEEE8iteratorD1Ev(%"class.boost::numeric::ublas::vector<double, boost::numeric::ublas::unbounded_array<double, std::__1::allocator<double> > >::iterator"* %204)
          to label %568 unwind label %569

; <label>:568:                                    ; preds = %567
  invoke void @_ZN5boost7numeric5ublas6vectorIdNS1_15unbounded_arrayIdNSt3__19allocatorIdEEEEE8iteratorD1Ev(%"class.boost::numeric::ublas::vector<double, boost::numeric::ublas::unbounded_array<double, std::__1::allocator<double> > >::iterator"* %205)
          to label %583 unwind label %585

; <label>:569:                                    ; preds = %567, %552, %521
  %570 = landingpad { i8*, i32 }
          cleanup
  br label %571

; <label>:571:                                    ; preds = %569, %559
  %572 = phi { i8*, i32 } [ %570, %569 ], [ %563, %559 ]
  %573 = extractvalue { i8*, i32 } %572, 0
  store i8* %573, i8** %206, align 8
  %574 = extractvalue { i8*, i32 } %572, 1
  store i32 %574, i32* %207, align 4
  invoke void @_ZN5boost7numeric5ublas6vectorIdNS1_15unbounded_arrayIdNSt3__19allocatorIdEEEEE8iteratorD1Ev(%"class.boost::numeric::ublas::vector<double, boost::numeric::ublas::unbounded_array<double, std::__1::allocator<double> > >::iterator"* %205)
          to label %575 unwind label %580

; <label>:575:                                    ; preds = %571
  %576 = load i8*, i8** %206, align 8
  %577 = load i32, i32* %207, align 4
  %578 = insertvalue { i8*, i32 } undef, i8* %576, 0
  %579 = insertvalue { i8*, i32 } %578, i32 %577, 1
  br label %587

; <label>:580:                                    ; preds = %571
  %581 = landingpad { i8*, i32 }
          cleanup
          catch i8* null
  %582 = extractvalue { i8*, i32 } %581, 0
  call void @__clang_call_terminate(i8* %582) #15
  unreachable

; <label>:583:                                    ; preds = %568
  invoke void @_ZN5boost7numeric5ublas6vectorIdNS1_15unbounded_arrayIdNSt3__19allocatorIdEEEEE8iteratorD1Ev(%"class.boost::numeric::ublas::vector<double, boost::numeric::ublas::unbounded_array<double, std::__1::allocator<double> > >::iterator"* %210)
          to label %584 unwind label %591

; <label>:584:                                    ; preds = %583
  invoke void @_ZN5boost7numeric5ublas6vectorIdNS1_15unbounded_arrayIdNSt3__19allocatorIdEEEEE8iteratorD1Ev(%"class.boost::numeric::ublas::vector<double, boost::numeric::ublas::unbounded_array<double, std::__1::allocator<double> > >::iterator"* %209)
          to label %605 unwind label %910

; <label>:585:                                    ; preds = %568
  %586 = landingpad { i8*, i32 }
          cleanup
  br label %587

; <label>:587:                                    ; preds = %585, %575
  %588 = phi { i8*, i32 } [ %586, %585 ], [ %579, %575 ]
  %589 = extractvalue { i8*, i32 } %588, 0
  store i8* %589, i8** %213, align 8
  %590 = extractvalue { i8*, i32 } %588, 1
  store i32 %590, i32* %214, align 4
  invoke void @_ZN5boost7numeric5ublas6vectorIdNS1_15unbounded_arrayIdNSt3__19allocatorIdEEEEE8iteratorD1Ev(%"class.boost::numeric::ublas::vector<double, boost::numeric::ublas::unbounded_array<double, std::__1::allocator<double> > >::iterator"* %210)
          to label %595 unwind label %602

; <label>:591:                                    ; preds = %583
  %592 = landingpad { i8*, i32 }
          cleanup
  %593 = extractvalue { i8*, i32 } %592, 0
  store i8* %593, i8** %213, align 8
  %594 = extractvalue { i8*, i32 } %592, 1
  store i32 %594, i32* %214, align 4
  br label %596

; <label>:595:                                    ; preds = %587
  br label %596

; <label>:596:                                    ; preds = %595, %591
  invoke void @_ZN5boost7numeric5ublas6vectorIdNS1_15unbounded_arrayIdNSt3__19allocatorIdEEEEE8iteratorD1Ev(%"class.boost::numeric::ublas::vector<double, boost::numeric::ublas::unbounded_array<double, std::__1::allocator<double> > >::iterator"* %209)
          to label %597 unwind label %602

; <label>:597:                                    ; preds = %596
  %598 = load i8*, i8** %213, align 8
  %599 = load i32, i32* %214, align 4
  %600 = insertvalue { i8*, i32 } undef, i8* %598, 0
  %601 = insertvalue { i8*, i32 } %600, i32 %599, 1
  br label %912

; <label>:602:                                    ; preds = %596, %587
  %603 = landingpad { i8*, i32 }
          cleanup
          catch i8* null
  %604 = extractvalue { i8*, i32 } %603, 0
  call void @__clang_call_terminate(i8* %604) #15
  unreachable

; <label>:605:                                    ; preds = %584
  br label %606

; <label>:606:                                    ; preds = %605
  invoke void @_ZN5boost7numeric5ublas6vectorIdNS1_15unbounded_arrayIdNSt3__19allocatorIdEEEEE8iteratorD1Ev(%"class.boost::numeric::ublas::vector<double, boost::numeric::ublas::unbounded_array<double, std::__1::allocator<double> > >::iterator"* %260)
          to label %607 unwind label %906

; <label>:607:                                    ; preds = %606
  call void @_ZN5boost7numeric5ublas6vectorIdNS1_15unbounded_arrayIdNSt3__19allocatorIdEEEEE8iteratorD1Ev(%"class.boost::numeric::ublas::vector<double, boost::numeric::ublas::unbounded_array<double, std::__1::allocator<double> > >::iterator"* %259)
  %608 = load %"class.boost::numeric::ublas::vector"*, %"class.boost::numeric::ublas::vector"** %251, align 8
  call void @_ZN5boost7numeric5ublas6vectorIdNS1_15unbounded_arrayIdNSt3__19allocatorIdEEEEE5beginEv(%"class.boost::numeric::ublas::vector<double, boost::numeric::ublas::unbounded_array<double, std::__1::allocator<double> > >::iterator"* sret %262, %"class.boost::numeric::ublas::vector"* %608)
  %609 = load %"class.boost::numeric::ublas::vector"*, %"class.boost::numeric::ublas::vector"** %251, align 8
  invoke void @_ZN5boost7numeric5ublas6vectorIdNS1_15unbounded_arrayIdNSt3__19allocatorIdEEEEE3endEv(%"class.boost::numeric::ublas::vector<double, boost::numeric::ublas::unbounded_array<double, std::__1::allocator<double> > >::iterator"* sret %263, %"class.boost::numeric::ublas::vector"* %609)
          to label %610 unwind label %919

; <label>:610:                                    ; preds = %607
  store double 0.000000e+00, double* %264, align 8
  store double* %264, double** %187, align 8
  %611 = bitcast %"class.boost::numeric::ublas::vector<double, boost::numeric::ublas::unbounded_array<double, std::__1::allocator<double> > >::iterator"* %188 to i8*
  %612 = bitcast %"class.boost::numeric::ublas::vector<double, boost::numeric::ublas::unbounded_array<double, std::__1::allocator<double> > >::iterator"* %262 to i8*
  call void @llvm.memcpy.p0i8.p0i8.i64(i8* %611, i8* %612, i64 16, i32 8, i1 false)
  %613 = bitcast %"class.boost::numeric::ublas::vector<double, boost::numeric::ublas::unbounded_array<double, std::__1::allocator<double> > >::iterator"* %189 to i8*
  %614 = bitcast %"class.boost::numeric::ublas::vector<double, boost::numeric::ublas::unbounded_array<double, std::__1::allocator<double> > >::iterator"* %263 to i8*
  call void @llvm.memcpy.p0i8.p0i8.i64(i8* %613, i8* %614, i64 16, i32 8, i1 false)
  %615 = load double*, double** %187, align 8
  %616 = bitcast %"struct.boost::numeric::ublas::dense_random_access_iterator_tag"* %191 to %"struct.std::__1::random_access_iterator_tag"*
  store double* %615, double** %182, align 8
  %617 = bitcast %"class.boost::numeric::ublas::vector<double, boost::numeric::ublas::unbounded_array<double, std::__1::allocator<double> > >::iterator"* %184 to i8*
  %618 = bitcast %"class.boost::numeric::ublas::vector<double, boost::numeric::ublas::unbounded_array<double, std::__1::allocator<double> > >::iterator"* %188 to i8*
  call void @llvm.memcpy.p0i8.p0i8.i64(i8* %617, i8* %618, i64 16, i32 8, i1 false)
  %619 = invoke i64 @_ZNK5boost7numeric5ublas6vectorIdNS1_15unbounded_arrayIdNSt3__19allocatorIdEEEEE8iteratormiERKS9_(%"class.boost::numeric::ublas::vector<double, boost::numeric::ublas::unbounded_array<double, std::__1::allocator<double> > >::iterator"* %189, %"class.boost::numeric::ublas::vector<double, boost::numeric::ublas::unbounded_array<double, std::__1::allocator<double> > >::iterator"* dereferenceable(16) %188)
          to label %620 unwind label %659

; <label>:620:                                    ; preds = %610
  %621 = load double*, double** %182, align 8
  store i64 %619, i64* %176, align 8, !noalias !14
  store double* %621, double** %177, align 8, !noalias !14
  %622 = bitcast %"class.boost::numeric::ublas::vector<double, boost::numeric::ublas::unbounded_array<double, std::__1::allocator<double> > >::iterator"* %178 to i8*
  %623 = bitcast %"class.boost::numeric::ublas::vector<double, boost::numeric::ublas::unbounded_array<double, std::__1::allocator<double> > >::iterator"* %184 to i8*
  call void @llvm.memcpy.p0i8.p0i8.i64(i8* %622, i8* %623, i64 16, i32 8, i1 false), !noalias !14
  %624 = load i64, i64* %176, align 8, !noalias !14
  store i64 %624, i64* %175, align 8, !noalias !14
  %625 = load i64, i64* %175, align 8, !noalias !14
  %626 = load double*, double** %177, align 8, !noalias !14
  store i64 %625, i64* %173, align 8, !noalias !17
  store double* %626, double** %174, align 8, !noalias !17
  br label %627

; <label>:627:                                    ; preds = %634, %620
  %628 = load i64, i64* %173, align 8, !noalias !17
  %629 = icmp sgt i64 %628, 0
  br i1 %629, label %630, label %642

; <label>:630:                                    ; preds = %627
  %631 = load double*, double** %174, align 8, !noalias !17
  %632 = load double, double* %631, align 8, !noalias !17
  %633 = invoke dereferenceable(8) double* @_ZNK5boost7numeric5ublas6vectorIdNS1_15unbounded_arrayIdNSt3__19allocatorIdEEEEE8iteratordeEv(%"class.boost::numeric::ublas::vector<double, boost::numeric::ublas::unbounded_array<double, std::__1::allocator<double> > >::iterator"* %178)
          to label %634 unwind label %645, !noalias !14

; <label>:634:                                    ; preds = %630
  store double %632, double* %633, align 8, !noalias !17
  %635 = call dereferenceable(16) %"class.boost::numeric::ublas::vector<double, boost::numeric::ublas::unbounded_array<double, std::__1::allocator<double> > >::iterator"* @_ZN5boost7numeric5ublas6vectorIdNS1_15unbounded_arrayIdNSt3__19allocatorIdEEEEE8iteratorppEv(%"class.boost::numeric::ublas::vector<double, boost::numeric::ublas::unbounded_array<double, std::__1::allocator<double> > >::iterator"* %178), !noalias !17
  %636 = load i64, i64* %173, align 8, !noalias !17
  %637 = sub i64 0, %636
  %638 = sub i64 0, -1
  %639 = add i64 %637, %638
  %640 = sub i64 0, %639
  %641 = add nsw i64 %636, -1
  store i64 %640, i64* %173, align 8, !noalias !17
  br label %627

; <label>:642:                                    ; preds = %627
  %643 = bitcast %"class.boost::numeric::ublas::vector<double, boost::numeric::ublas::unbounded_array<double, std::__1::allocator<double> > >::iterator"* %183 to i8*
  %644 = bitcast %"class.boost::numeric::ublas::vector<double, boost::numeric::ublas::unbounded_array<double, std::__1::allocator<double> > >::iterator"* %178 to i8*
  call void @llvm.memcpy.p0i8.p0i8.i64(i8* %643, i8* %644, i64 16, i32 8, i1 false)
  invoke void @_ZN5boost7numeric5ublas6vectorIdNS1_15unbounded_arrayIdNSt3__19allocatorIdEEEEE8iteratorD1Ev(%"class.boost::numeric::ublas::vector<double, boost::numeric::ublas::unbounded_array<double, std::__1::allocator<double> > >::iterator"* %178)
          to label %657 unwind label %659

; <label>:645:                                    ; preds = %630
  %646 = landingpad { i8*, i32 }
          cleanup
  %647 = extractvalue { i8*, i32 } %646, 0
  store i8* %647, i8** %179, align 8, !noalias !14
  %648 = extractvalue { i8*, i32 } %646, 1
  store i32 %648, i32* %180, align 4, !noalias !14
  invoke void @_ZN5boost7numeric5ublas6vectorIdNS1_15unbounded_arrayIdNSt3__19allocatorIdEEEEE8iteratorD1Ev(%"class.boost::numeric::ublas::vector<double, boost::numeric::ublas::unbounded_array<double, std::__1::allocator<double> > >::iterator"* %178)
          to label %649 unwind label %654, !noalias !14

; <label>:649:                                    ; preds = %645
  %650 = load i8*, i8** %179, align 8, !noalias !14
  %651 = load i32, i32* %180, align 4, !noalias !14
  %652 = insertvalue { i8*, i32 } undef, i8* %650, 0
  %653 = insertvalue { i8*, i32 } %652, i32 %651, 1
  br label %661

; <label>:654:                                    ; preds = %645
  %655 = landingpad { i8*, i32 }
          cleanup
          catch i8* null
  %656 = extractvalue { i8*, i32 } %655, 0
  call void @__clang_call_terminate(i8* %656) #15, !noalias !14
  unreachable

; <label>:657:                                    ; preds = %642
  invoke void @_ZN5boost7numeric5ublas6vectorIdNS1_15unbounded_arrayIdNSt3__19allocatorIdEEEEE8iteratorD1Ev(%"class.boost::numeric::ublas::vector<double, boost::numeric::ublas::unbounded_array<double, std::__1::allocator<double> > >::iterator"* %183)
          to label %658 unwind label %659

; <label>:658:                                    ; preds = %657
  invoke void @_ZN5boost7numeric5ublas6vectorIdNS1_15unbounded_arrayIdNSt3__19allocatorIdEEEEE8iteratorD1Ev(%"class.boost::numeric::ublas::vector<double, boost::numeric::ublas::unbounded_array<double, std::__1::allocator<double> > >::iterator"* %184)
          to label %673 unwind label %675

; <label>:659:                                    ; preds = %657, %642, %610
  %660 = landingpad { i8*, i32 }
          cleanup
  br label %661

; <label>:661:                                    ; preds = %659, %649
  %662 = phi { i8*, i32 } [ %660, %659 ], [ %653, %649 ]
  %663 = extractvalue { i8*, i32 } %662, 0
  store i8* %663, i8** %185, align 8
  %664 = extractvalue { i8*, i32 } %662, 1
  store i32 %664, i32* %186, align 4
  invoke void @_ZN5boost7numeric5ublas6vectorIdNS1_15unbounded_arrayIdNSt3__19allocatorIdEEEEE8iteratorD1Ev(%"class.boost::numeric::ublas::vector<double, boost::numeric::ublas::unbounded_array<double, std::__1::allocator<double> > >::iterator"* %184)
          to label %665 unwind label %670

; <label>:665:                                    ; preds = %661
  %666 = load i8*, i8** %185, align 8
  %667 = load i32, i32* %186, align 4
  %668 = insertvalue { i8*, i32 } undef, i8* %666, 0
  %669 = insertvalue { i8*, i32 } %668, i32 %667, 1
  br label %677

; <label>:670:                                    ; preds = %661
  %671 = landingpad { i8*, i32 }
          cleanup
          catch i8* null
  %672 = extractvalue { i8*, i32 } %671, 0
  call void @__clang_call_terminate(i8* %672) #15
  unreachable

; <label>:673:                                    ; preds = %658
  invoke void @_ZN5boost7numeric5ublas6vectorIdNS1_15unbounded_arrayIdNSt3__19allocatorIdEEEEE8iteratorD1Ev(%"class.boost::numeric::ublas::vector<double, boost::numeric::ublas::unbounded_array<double, std::__1::allocator<double> > >::iterator"* %189)
          to label %674 unwind label %681

; <label>:674:                                    ; preds = %673
  invoke void @_ZN5boost7numeric5ublas6vectorIdNS1_15unbounded_arrayIdNSt3__19allocatorIdEEEEE8iteratorD1Ev(%"class.boost::numeric::ublas::vector<double, boost::numeric::ublas::unbounded_array<double, std::__1::allocator<double> > >::iterator"* %188)
          to label %695 unwind label %923

; <label>:675:                                    ; preds = %658
  %676 = landingpad { i8*, i32 }
          cleanup
  br label %677

; <label>:677:                                    ; preds = %675, %665
  %678 = phi { i8*, i32 } [ %676, %675 ], [ %669, %665 ]
  %679 = extractvalue { i8*, i32 } %678, 0
  store i8* %679, i8** %192, align 8
  %680 = extractvalue { i8*, i32 } %678, 1
  store i32 %680, i32* %193, align 4
  invoke void @_ZN5boost7numeric5ublas6vectorIdNS1_15unbounded_arrayIdNSt3__19allocatorIdEEEEE8iteratorD1Ev(%"class.boost::numeric::ublas::vector<double, boost::numeric::ublas::unbounded_array<double, std::__1::allocator<double> > >::iterator"* %189)
          to label %685 unwind label %692

; <label>:681:                                    ; preds = %673
  %682 = landingpad { i8*, i32 }
          cleanup
  %683 = extractvalue { i8*, i32 } %682, 0
  store i8* %683, i8** %192, align 8
  %684 = extractvalue { i8*, i32 } %682, 1
  store i32 %684, i32* %193, align 4
  br label %686

; <label>:685:                                    ; preds = %677
  br label %686

; <label>:686:                                    ; preds = %685, %681
  invoke void @_ZN5boost7numeric5ublas6vectorIdNS1_15unbounded_arrayIdNSt3__19allocatorIdEEEEE8iteratorD1Ev(%"class.boost::numeric::ublas::vector<double, boost::numeric::ublas::unbounded_array<double, std::__1::allocator<double> > >::iterator"* %188)
          to label %687 unwind label %692

; <label>:687:                                    ; preds = %686
  %688 = load i8*, i8** %192, align 8
  %689 = load i32, i32* %193, align 4
  %690 = insertvalue { i8*, i32 } undef, i8* %688, 0
  %691 = insertvalue { i8*, i32 } %690, i32 %689, 1
  br label %925

; <label>:692:                                    ; preds = %686, %677
  %693 = landingpad { i8*, i32 }
          cleanup
          catch i8* null
  %694 = extractvalue { i8*, i32 } %693, 0
  call void @__clang_call_terminate(i8* %694) #15
  unreachable

; <label>:695:                                    ; preds = %674
  br label %696

; <label>:696:                                    ; preds = %695
  invoke void @_ZN5boost7numeric5ublas6vectorIdNS1_15unbounded_arrayIdNSt3__19allocatorIdEEEEE8iteratorD1Ev(%"class.boost::numeric::ublas::vector<double, boost::numeric::ublas::unbounded_array<double, std::__1::allocator<double> > >::iterator"* %263)
          to label %697 unwind label %919

; <label>:697:                                    ; preds = %696
  call void @_ZN5boost7numeric5ublas6vectorIdNS1_15unbounded_arrayIdNSt3__19allocatorIdEEEEE8iteratorD1Ev(%"class.boost::numeric::ublas::vector<double, boost::numeric::ublas::unbounded_array<double, std::__1::allocator<double> > >::iterator"* %262)
  %698 = getelementptr inbounds %class.Network, %class.Network* %278, i32 0, i32 6
  store %"class.std::__1::vector.0"* %698, %"class.std::__1::vector.0"** %170, align 8
  store %"class.boost::numeric::ublas::matrix"** %246, %"class.boost::numeric::ublas::matrix"*** %171, align 8
  %699 = load %"class.std::__1::vector.0"*, %"class.std::__1::vector.0"** %170, align 8
  %700 = bitcast %"class.std::__1::vector.0"* %699 to %"class.std::__1::__vector_base.1"*
  %701 = getelementptr inbounds %"class.std::__1::__vector_base.1", %"class.std::__1::__vector_base.1"* %700, i32 0, i32 1
  %702 = load %"class.boost::numeric::ublas::matrix"**, %"class.boost::numeric::ublas::matrix"*** %701, align 8
  %703 = bitcast %"class.std::__1::vector.0"* %699 to %"class.std::__1::__vector_base.1"*
  store %"class.std::__1::__vector_base.1"* %703, %"class.std::__1::__vector_base.1"** %169, align 8
  %704 = load %"class.std::__1::__vector_base.1"*, %"class.std::__1::__vector_base.1"** %169, align 8
  %705 = getelementptr inbounds %"class.std::__1::__vector_base.1", %"class.std::__1::__vector_base.1"* %704, i32 0, i32 2
  store %"class.std::__1::__compressed_pair.2"* %705, %"class.std::__1::__compressed_pair.2"** %168, align 8
  %706 = load %"class.std::__1::__compressed_pair.2"*, %"class.std::__1::__compressed_pair.2"** %168, align 8
  %707 = bitcast %"class.std::__1::__compressed_pair.2"* %706 to %"class.std::__1::__libcpp_compressed_pair_imp.3"*
  store %"class.std::__1::__libcpp_compressed_pair_imp.3"* %707, %"class.std::__1::__libcpp_compressed_pair_imp.3"** %167, align 8
  %708 = load %"class.std::__1::__libcpp_compressed_pair_imp.3"*, %"class.std::__1::__libcpp_compressed_pair_imp.3"** %167, align 8
  %709 = getelementptr inbounds %"class.std::__1::__libcpp_compressed_pair_imp.3", %"class.std::__1::__libcpp_compressed_pair_imp.3"* %708, i32 0, i32 0
  %710 = load %"class.boost::numeric::ublas::matrix"**, %"class.boost::numeric::ublas::matrix"*** %709, align 8
  %711 = icmp ne %"class.boost::numeric::ublas::matrix"** %702, %710
  br i1 %711, label %712, label %733

; <label>:712:                                    ; preds = %697
  call void @_ZNSt3__16vectorIPN5boost7numeric5ublas6matrixIdNS3_15basic_row_majorImlEENS3_15unbounded_arrayIdNS_9allocatorIdEEEEEENS8_ISC_EEE24__RAII_IncreaseAnnotatorC1ERKSE_m(%"struct.std::__1::vector<boost::numeric::ublas::matrix<double, boost::numeric::ublas::basic_row_major<unsigned long, long>, boost::numeric::ublas::unbounded_array<double, std::__1::allocator<double> > > *, std::__1::allocator<boost::numeric::ublas::matrix<double, boost::numeric::ublas::basic_row_major<unsigned long, long>, boost::numeric::ublas::unbounded_array<double, std::__1::allocator<double> > > *> >::__RAII_IncreaseAnnotator"* %172, %"class.std::__1::vector.0"* dereferenceable(24) %699, i64 1)
  %713 = bitcast %"class.std::__1::vector.0"* %699 to %"class.std::__1::__vector_base.1"*
  store %"class.std::__1::__vector_base.1"* %713, %"class.std::__1::__vector_base.1"** %166, align 8
  %714 = load %"class.std::__1::__vector_base.1"*, %"class.std::__1::__vector_base.1"** %166, align 8
  %715 = getelementptr inbounds %"class.std::__1::__vector_base.1", %"class.std::__1::__vector_base.1"* %714, i32 0, i32 2
  store %"class.std::__1::__compressed_pair.2"* %715, %"class.std::__1::__compressed_pair.2"** %165, align 8
  %716 = load %"class.std::__1::__compressed_pair.2"*, %"class.std::__1::__compressed_pair.2"** %165, align 8
  %717 = bitcast %"class.std::__1::__compressed_pair.2"* %716 to %"class.std::__1::__libcpp_compressed_pair_imp.3"*
  store %"class.std::__1::__libcpp_compressed_pair_imp.3"* %717, %"class.std::__1::__libcpp_compressed_pair_imp.3"** %164, align 8
  %718 = load %"class.std::__1::__libcpp_compressed_pair_imp.3"*, %"class.std::__1::__libcpp_compressed_pair_imp.3"** %164, align 8
  %719 = bitcast %"class.std::__1::__libcpp_compressed_pair_imp.3"* %718 to %"class.std::__1::allocator.4"*
  %720 = bitcast %"class.std::__1::vector.0"* %699 to %"class.std::__1::__vector_base.1"*
  %721 = getelementptr inbounds %"class.std::__1::__vector_base.1", %"class.std::__1::__vector_base.1"* %720, i32 0, i32 1
  %722 = load %"class.boost::numeric::ublas::matrix"**, %"class.boost::numeric::ublas::matrix"*** %721, align 8
  store %"class.boost::numeric::ublas::matrix"** %722, %"class.boost::numeric::ublas::matrix"*** %163, align 8
  %723 = load %"class.boost::numeric::ublas::matrix"**, %"class.boost::numeric::ublas::matrix"*** %163, align 8
  %724 = load %"class.boost::numeric::ublas::matrix"**, %"class.boost::numeric::ublas::matrix"*** %171, align 8
  store %"class.std::__1::allocator.4"* %719, %"class.std::__1::allocator.4"** %160, align 8
  store %"class.boost::numeric::ublas::matrix"** %723, %"class.boost::numeric::ublas::matrix"*** %161, align 8
  store %"class.boost::numeric::ublas::matrix"** %724, %"class.boost::numeric::ublas::matrix"*** %162, align 8
  %725 = load %"class.boost::numeric::ublas::matrix"**, %"class.boost::numeric::ublas::matrix"*** %161, align 8
  %726 = bitcast %"class.boost::numeric::ublas::matrix"** %725 to i8*
  %727 = load %"class.boost::numeric::ublas::matrix"**, %"class.boost::numeric::ublas::matrix"*** %162, align 8
  %728 = load %"class.boost::numeric::ublas::matrix"*, %"class.boost::numeric::ublas::matrix"** %727, align 8
  store %"class.boost::numeric::ublas::matrix"* %728, %"class.boost::numeric::ublas::matrix"** %725, align 8
  call void @_ZNSt3__16vectorIPN5boost7numeric5ublas6matrixIdNS3_15basic_row_majorImlEENS3_15unbounded_arrayIdNS_9allocatorIdEEEEEENS8_ISC_EEE24__RAII_IncreaseAnnotator6__doneEv(%"struct.std::__1::vector<boost::numeric::ublas::matrix<double, boost::numeric::ublas::basic_row_major<unsigned long, long>, boost::numeric::ublas::unbounded_array<double, std::__1::allocator<double> > > *, std::__1::allocator<boost::numeric::ublas::matrix<double, boost::numeric::ublas::basic_row_major<unsigned long, long>, boost::numeric::ublas::unbounded_array<double, std::__1::allocator<double> > > *> >::__RAII_IncreaseAnnotator"* %172)
  %729 = bitcast %"class.std::__1::vector.0"* %699 to %"class.std::__1::__vector_base.1"*
  %730 = getelementptr inbounds %"class.std::__1::__vector_base.1", %"class.std::__1::__vector_base.1"* %729, i32 0, i32 1
